

Microchip Technology PIC LITE Macro Assembler V2.00 build -1524193055 
                                                                                               Sat Jul 28 16:46:10 2018

Microchip Technology Omniscient Code Generator v2.00 (Free mode) build 20180527130849
     1                           	processor	12F1572
     2                           	opt	pw 120
     3                           	opt	lm
     4                           	psect	cinit,global,class=CODE,merge=1,delta=2
     5                           	psect	cstackCOMMON,global,class=COMMON,space=1,delta=1
     6                           	psect	cstackBANK0,global,class=BANK0,space=1,delta=1
     7                           	psect	maintext,global,class=CODE,merge=1,split=1,delta=2
     8                           	psect	text1,local,class=CODE,merge=1,delta=2
     9                           	psect	text2,local,class=CODE,merge=1,delta=2
    10                           	psect	text3,local,class=CODE,merge=1,delta=2
    11                           	psect	text4,local,class=CODE,merge=1,delta=2
    12                           	psect	text5,local,class=CODE,merge=1,delta=2
    13                           	psect	text6,local,class=CODE,merge=1,delta=2
    14                           	psect	text7,local,class=CODE,merge=1,delta=2
    15                           	psect	text8,local,class=CODE,merge=1,delta=2
    16                           	psect	text9,local,class=CODE,merge=1,delta=2
    17                           	psect	text10,local,class=CODE,merge=1,delta=2
    18                           	psect	text11,local,class=CODE,merge=1,delta=2
    19                           	psect	text12,local,class=CODE,merge=1,delta=2
    20                           	psect	text13,local,class=CODE,merge=1,delta=2
    21                           	psect	text14,local,class=CODE,merge=1,delta=2
    22                           	psect	text15,local,class=CODE,merge=1,delta=2
    23                           	psect	text16,local,class=CODE,merge=1,delta=2
    24                           	psect	text17,local,class=CODE,merge=1,delta=2
    25                           	psect	text18,local,class=CODE,merge=1,delta=2
    26                           	psect	text19,local,class=CODE,merge=1,delta=2
    27                           	psect	text20,local,class=CODE,merge=1,delta=2
    28                           	psect	text21,local,class=CODE,merge=1,delta=2
    29                           	psect	text22,local,class=CODE,merge=1,delta=2
    30                           	psect	text23,local,class=CODE,merge=1,delta=2
    31                           	psect	text24,local,class=CODE,merge=1,delta=2
    32                           	psect	text25,local,class=CODE,merge=1,delta=2
    33                           	psect	text26,local,class=CODE,merge=1,delta=2
    34                           	psect	text27,local,class=CODE,merge=1,delta=2
    35                           	psect	text28,local,class=CODE,merge=1,delta=2
    36                           	psect	text29,local,class=CODE,merge=1,delta=2
    37                           	psect	text30,local,class=CODE,merge=1,delta=2
    38                           	psect	text31,local,class=CODE,merge=1,delta=2
    39                           	dabs	1,0x7E,2
    40  0000                     
    41                           ; Version 2.00
    42                           ; Generated 27/05/2018 GMT
    43                           ; 
    44                           ; Copyright © 2018, Microchip Technology Inc. and its subsidiaries ("Microchip")
    45                           ; All rights reserved.
    46                           ; 
    47                           ; This software is developed by Microchip Technology Inc. and its subsidiaries ("Microch
      +                          ip").
    48                           ; 
    49                           ; Redistribution and use in source and binary forms, with or without modification, are
    50                           ; permitted provided that the following conditions are met:
    51                           ; 
    52                           ;     1. Redistributions of source code must retain the above copyright notice, this lis
      +                          t of
    53                           ;        conditions and the following disclaimer.
    54                           ; 
    55                           ;     2. Redistributions in binary form must reproduce the above copyright notice, this 
      +                          list
    56                           ;        of conditions and the following disclaimer in the documentation and/or other
    57                           ;        materials provided with the distribution.
    58                           ; 
    59                           ;     3. Microchip's name may not be used to endorse or promote products derived from th
      +                          is
    60                           ;        software without specific prior written permission.
    61                           ; 
    62                           ; THIS SOFTWARE IS PROVIDED BY MICROCHIP "AS IS" AND ANY EXPRESS OR IMPLIED WARRANTIES,
    63                           ; INCLUDING, BUT NOT LIMITED TO, THE IMPLIED WARRANTIES OF MERCHANTABILITY AND FITNESS F
      +                          OR
    64                           ; PURPOSE ARE DISCLAIMED.  IN NO EVENT SHALL MICROCHIP BE LIABLE FOR ANY DIRECT, INDIREC
      +                          T,
    65                           ; INCIDENTAL, SPECIAL, EXEMPLARY, OR CONSEQUENTIAL DAMAGES (INCLUDING BUT NOT LIMITED TO
    66                           ; PROCUREMENT OF SUBSTITUTE GOODS OR SERVICES; LOSS OF USE, DATA OR PROFITS; OR BUSINESS
    67                           ; INTERRUPTION) HOWSOEVER CAUSED AND ON ANY THEORY OF LIABILITY, WHETHER IN CONTRACT, ST
      +                          RICT
    68                           ; LIABILITY, OR TORT (INCLUDING NEGLIGENCE OR OTHERWISE) ARISING IN ANY WAY OUT OF THE U
      +                          SE OF
    69                           ; THIS SOFTWARE, EVEN IF ADVISED OF THE POSSIBILITY OF SUCH DAMAGE.
    70                           ; 
    71                           ; 
    72                           ; Code-generator required, PIC12F1572 Definitions
    73                           ; 
    74                           ; SFR Addresses
    75  0000                     	;# 
    76  0001                     	;# 
    77  0002                     	;# 
    78  0003                     	;# 
    79  0004                     	;# 
    80  0005                     	;# 
    81  0006                     	;# 
    82  0007                     	;# 
    83  0008                     	;# 
    84  0009                     	;# 
    85  000A                     	;# 
    86  000B                     	;# 
    87  000C                     	;# 
    88  0011                     	;# 
    89  0012                     	;# 
    90  0013                     	;# 
    91  0015                     	;# 
    92  0016                     	;# 
    93  0016                     	;# 
    94  0017                     	;# 
    95  0018                     	;# 
    96  0019                     	;# 
    97  001A                     	;# 
    98  001B                     	;# 
    99  001C                     	;# 
   100  008C                     	;# 
   101  0091                     	;# 
   102  0092                     	;# 
   103  0093                     	;# 
   104  0095                     	;# 
   105  0096                     	;# 
   106  0097                     	;# 
   107  0098                     	;# 
   108  0099                     	;# 
   109  009A                     	;# 
   110  009B                     	;# 
   111  009B                     	;# 
   112  009C                     	;# 
   113  009D                     	;# 
   114  009E                     	;# 
   115  009F                     	;# 
   116  010C                     	;# 
   117  0111                     	;# 
   118  0112                     	;# 
   119  0115                     	;# 
   120  0116                     	;# 
   121  0117                     	;# 
   122  0118                     	;# 
   123  0119                     	;# 
   124  011D                     	;# 
   125  011D                     	;# 
   126  018C                     	;# 
   127  0191                     	;# 
   128  0191                     	;# 
   129  0192                     	;# 
   130  0193                     	;# 
   131  0193                     	;# 
   132  0194                     	;# 
   133  0195                     	;# 
   134  0196                     	;# 
   135  0197                     	;# 
   136  0199                     	;# 
   137  019A                     	;# 
   138  019B                     	;# 
   139  019B                     	;# 
   140  019C                     	;# 
   141  019D                     	;# 
   142  019E                     	;# 
   143  019F                     	;# 
   144  020C                     	;# 
   145  028C                     	;# 
   146  030C                     	;# 
   147  038C                     	;# 
   148  0391                     	;# 
   149  0392                     	;# 
   150  0393                     	;# 
   151  0691                     	;# 
   152  0692                     	;# 
   153  0693                     	;# 
   154  0694                     	;# 
   155  0695                     	;# 
   156  0D8E                     	;# 
   157  0D8F                     	;# 
   158  0D90                     	;# 
   159  0D91                     	;# 
   160  0D91                     	;# 
   161  0D92                     	;# 
   162  0D93                     	;# 
   163  0D93                     	;# 
   164  0D94                     	;# 
   165  0D95                     	;# 
   166  0D95                     	;# 
   167  0D96                     	;# 
   168  0D97                     	;# 
   169  0D97                     	;# 
   170  0D98                     	;# 
   171  0D99                     	;# 
   172  0D99                     	;# 
   173  0D9A                     	;# 
   174  0D9B                     	;# 
   175  0D9C                     	;# 
   176  0D9C                     	;# 
   177  0D9D                     	;# 
   178  0D9D                     	;# 
   179  0D9E                     	;# 
   180  0D9F                     	;# 
   181  0DA0                     	;# 
   182  0DA1                     	;# 
   183  0DA1                     	;# 
   184  0DA2                     	;# 
   185  0DA3                     	;# 
   186  0DA3                     	;# 
   187  0DA4                     	;# 
   188  0DA5                     	;# 
   189  0DA5                     	;# 
   190  0DA6                     	;# 
   191  0DA7                     	;# 
   192  0DA7                     	;# 
   193  0DA8                     	;# 
   194  0DA9                     	;# 
   195  0DA9                     	;# 
   196  0DAA                     	;# 
   197  0DAB                     	;# 
   198  0DAC                     	;# 
   199  0DAC                     	;# 
   200  0DAD                     	;# 
   201  0DAD                     	;# 
   202  0DAE                     	;# 
   203  0DAF                     	;# 
   204  0DB0                     	;# 
   205  0DB1                     	;# 
   206  0DB1                     	;# 
   207  0DB2                     	;# 
   208  0DB3                     	;# 
   209  0DB3                     	;# 
   210  0DB4                     	;# 
   211  0DB5                     	;# 
   212  0DB5                     	;# 
   213  0DB6                     	;# 
   214  0DB7                     	;# 
   215  0DB7                     	;# 
   216  0DB8                     	;# 
   217  0DB9                     	;# 
   218  0DB9                     	;# 
   219  0DBA                     	;# 
   220  0DBB                     	;# 
   221  0DBC                     	;# 
   222  0DBC                     	;# 
   223  0DBD                     	;# 
   224  0DBD                     	;# 
   225  0DBE                     	;# 
   226  0DBF                     	;# 
   227  0DC0                     	;# 
   228  0FE4                     	;# 
   229  0FE5                     	;# 
   230  0FE6                     	;# 
   231  0FE7                     	;# 
   232  0FE8                     	;# 
   233  0FE8                     	;# 
   234  0FE9                     	;# 
   235  0FEA                     	;# 
   236  0FEA                     	;# 
   237  0FEB                     	;# 
   238  0FED                     	;# 
   239  0FEE                     	;# 
   240  0FEE                     	;# 
   241  0FEF                     	;# 
   242  0000                     	;# 
   243  0001                     	;# 
   244  0002                     	;# 
   245  0003                     	;# 
   246  0004                     	;# 
   247  0005                     	;# 
   248  0006                     	;# 
   249  0007                     	;# 
   250  0008                     	;# 
   251  0009                     	;# 
   252  000A                     	;# 
   253  000B                     	;# 
   254  000C                     	;# 
   255  0011                     	;# 
   256  0012                     	;# 
   257  0013                     	;# 
   258  0015                     	;# 
   259  0016                     	;# 
   260  0016                     	;# 
   261  0017                     	;# 
   262  0018                     	;# 
   263  0019                     	;# 
   264  001A                     	;# 
   265  001B                     	;# 
   266  001C                     	;# 
   267  008C                     	;# 
   268  0091                     	;# 
   269  0092                     	;# 
   270  0093                     	;# 
   271  0095                     	;# 
   272  0096                     	;# 
   273  0097                     	;# 
   274  0098                     	;# 
   275  0099                     	;# 
   276  009A                     	;# 
   277  009B                     	;# 
   278  009B                     	;# 
   279  009C                     	;# 
   280  009D                     	;# 
   281  009E                     	;# 
   282  009F                     	;# 
   283  010C                     	;# 
   284  0111                     	;# 
   285  0112                     	;# 
   286  0115                     	;# 
   287  0116                     	;# 
   288  0117                     	;# 
   289  0118                     	;# 
   290  0119                     	;# 
   291  011D                     	;# 
   292  011D                     	;# 
   293  018C                     	;# 
   294  0191                     	;# 
   295  0191                     	;# 
   296  0192                     	;# 
   297  0193                     	;# 
   298  0193                     	;# 
   299  0194                     	;# 
   300  0195                     	;# 
   301  0196                     	;# 
   302  0197                     	;# 
   303  0199                     	;# 
   304  019A                     	;# 
   305  019B                     	;# 
   306  019B                     	;# 
   307  019C                     	;# 
   308  019D                     	;# 
   309  019E                     	;# 
   310  019F                     	;# 
   311  020C                     	;# 
   312  028C                     	;# 
   313  030C                     	;# 
   314  038C                     	;# 
   315  0391                     	;# 
   316  0392                     	;# 
   317  0393                     	;# 
   318  0691                     	;# 
   319  0692                     	;# 
   320  0693                     	;# 
   321  0694                     	;# 
   322  0695                     	;# 
   323  0D8E                     	;# 
   324  0D8F                     	;# 
   325  0D90                     	;# 
   326  0D91                     	;# 
   327  0D91                     	;# 
   328  0D92                     	;# 
   329  0D93                     	;# 
   330  0D93                     	;# 
   331  0D94                     	;# 
   332  0D95                     	;# 
   333  0D95                     	;# 
   334  0D96                     	;# 
   335  0D97                     	;# 
   336  0D97                     	;# 
   337  0D98                     	;# 
   338  0D99                     	;# 
   339  0D99                     	;# 
   340  0D9A                     	;# 
   341  0D9B                     	;# 
   342  0D9C                     	;# 
   343  0D9C                     	;# 
   344  0D9D                     	;# 
   345  0D9D                     	;# 
   346  0D9E                     	;# 
   347  0D9F                     	;# 
   348  0DA0                     	;# 
   349  0DA1                     	;# 
   350  0DA1                     	;# 
   351  0DA2                     	;# 
   352  0DA3                     	;# 
   353  0DA3                     	;# 
   354  0DA4                     	;# 
   355  0DA5                     	;# 
   356  0DA5                     	;# 
   357  0DA6                     	;# 
   358  0DA7                     	;# 
   359  0DA7                     	;# 
   360  0DA8                     	;# 
   361  0DA9                     	;# 
   362  0DA9                     	;# 
   363  0DAA                     	;# 
   364  0DAB                     	;# 
   365  0DAC                     	;# 
   366  0DAC                     	;# 
   367  0DAD                     	;# 
   368  0DAD                     	;# 
   369  0DAE                     	;# 
   370  0DAF                     	;# 
   371  0DB0                     	;# 
   372  0DB1                     	;# 
   373  0DB1                     	;# 
   374  0DB2                     	;# 
   375  0DB3                     	;# 
   376  0DB3                     	;# 
   377  0DB4                     	;# 
   378  0DB5                     	;# 
   379  0DB5                     	;# 
   380  0DB6                     	;# 
   381  0DB7                     	;# 
   382  0DB7                     	;# 
   383  0DB8                     	;# 
   384  0DB9                     	;# 
   385  0DB9                     	;# 
   386  0DBA                     	;# 
   387  0DBB                     	;# 
   388  0DBC                     	;# 
   389  0DBC                     	;# 
   390  0DBD                     	;# 
   391  0DBD                     	;# 
   392  0DBE                     	;# 
   393  0DBF                     	;# 
   394  0DC0                     	;# 
   395  0FE4                     	;# 
   396  0FE5                     	;# 
   397  0FE6                     	;# 
   398  0FE7                     	;# 
   399  0FE8                     	;# 
   400  0FE8                     	;# 
   401  0FE9                     	;# 
   402  0FEA                     	;# 
   403  0FEA                     	;# 
   404  0FEB                     	;# 
   405  0FED                     	;# 
   406  0FEE                     	;# 
   407  0FEE                     	;# 
   408  0FEF                     	;# 
   409  0000                     	;# 
   410  0001                     	;# 
   411  0002                     	;# 
   412  0003                     	;# 
   413  0004                     	;# 
   414  0005                     	;# 
   415  0006                     	;# 
   416  0007                     	;# 
   417  0008                     	;# 
   418  0009                     	;# 
   419  000A                     	;# 
   420  000B                     	;# 
   421  000C                     	;# 
   422  0011                     	;# 
   423  0012                     	;# 
   424  0013                     	;# 
   425  0015                     	;# 
   426  0016                     	;# 
   427  0016                     	;# 
   428  0017                     	;# 
   429  0018                     	;# 
   430  0019                     	;# 
   431  001A                     	;# 
   432  001B                     	;# 
   433  001C                     	;# 
   434  008C                     	;# 
   435  0091                     	;# 
   436  0092                     	;# 
   437  0093                     	;# 
   438  0095                     	;# 
   439  0096                     	;# 
   440  0097                     	;# 
   441  0098                     	;# 
   442  0099                     	;# 
   443  009A                     	;# 
   444  009B                     	;# 
   445  009B                     	;# 
   446  009C                     	;# 
   447  009D                     	;# 
   448  009E                     	;# 
   449  009F                     	;# 
   450  010C                     	;# 
   451  0111                     	;# 
   452  0112                     	;# 
   453  0115                     	;# 
   454  0116                     	;# 
   455  0117                     	;# 
   456  0118                     	;# 
   457  0119                     	;# 
   458  011D                     	;# 
   459  011D                     	;# 
   460  018C                     	;# 
   461  0191                     	;# 
   462  0191                     	;# 
   463  0192                     	;# 
   464  0193                     	;# 
   465  0193                     	;# 
   466  0194                     	;# 
   467  0195                     	;# 
   468  0196                     	;# 
   469  0197                     	;# 
   470  0199                     	;# 
   471  019A                     	;# 
   472  019B                     	;# 
   473  019B                     	;# 
   474  019C                     	;# 
   475  019D                     	;# 
   476  019E                     	;# 
   477  019F                     	;# 
   478  020C                     	;# 
   479  028C                     	;# 
   480  030C                     	;# 
   481  038C                     	;# 
   482  0391                     	;# 
   483  0392                     	;# 
   484  0393                     	;# 
   485  0691                     	;# 
   486  0692                     	;# 
   487  0693                     	;# 
   488  0694                     	;# 
   489  0695                     	;# 
   490  0D8E                     	;# 
   491  0D8F                     	;# 
   492  0D90                     	;# 
   493  0D91                     	;# 
   494  0D91                     	;# 
   495  0D92                     	;# 
   496  0D93                     	;# 
   497  0D93                     	;# 
   498  0D94                     	;# 
   499  0D95                     	;# 
   500  0D95                     	;# 
   501  0D96                     	;# 
   502  0D97                     	;# 
   503  0D97                     	;# 
   504  0D98                     	;# 
   505  0D99                     	;# 
   506  0D99                     	;# 
   507  0D9A                     	;# 
   508  0D9B                     	;# 
   509  0D9C                     	;# 
   510  0D9C                     	;# 
   511  0D9D                     	;# 
   512  0D9D                     	;# 
   513  0D9E                     	;# 
   514  0D9F                     	;# 
   515  0DA0                     	;# 
   516  0DA1                     	;# 
   517  0DA1                     	;# 
   518  0DA2                     	;# 
   519  0DA3                     	;# 
   520  0DA3                     	;# 
   521  0DA4                     	;# 
   522  0DA5                     	;# 
   523  0DA5                     	;# 
   524  0DA6                     	;# 
   525  0DA7                     	;# 
   526  0DA7                     	;# 
   527  0DA8                     	;# 
   528  0DA9                     	;# 
   529  0DA9                     	;# 
   530  0DAA                     	;# 
   531  0DAB                     	;# 
   532  0DAC                     	;# 
   533  0DAC                     	;# 
   534  0DAD                     	;# 
   535  0DAD                     	;# 
   536  0DAE                     	;# 
   537  0DAF                     	;# 
   538  0DB0                     	;# 
   539  0DB1                     	;# 
   540  0DB1                     	;# 
   541  0DB2                     	;# 
   542  0DB3                     	;# 
   543  0DB3                     	;# 
   544  0DB4                     	;# 
   545  0DB5                     	;# 
   546  0DB5                     	;# 
   547  0DB6                     	;# 
   548  0DB7                     	;# 
   549  0DB7                     	;# 
   550  0DB8                     	;# 
   551  0DB9                     	;# 
   552  0DB9                     	;# 
   553  0DBA                     	;# 
   554  0DBB                     	;# 
   555  0DBC                     	;# 
   556  0DBC                     	;# 
   557  0DBD                     	;# 
   558  0DBD                     	;# 
   559  0DBE                     	;# 
   560  0DBF                     	;# 
   561  0DC0                     	;# 
   562  0FE4                     	;# 
   563  0FE5                     	;# 
   564  0FE6                     	;# 
   565  0FE7                     	;# 
   566  0FE8                     	;# 
   567  0FE8                     	;# 
   568  0FE9                     	;# 
   569  0FEA                     	;# 
   570  0FEA                     	;# 
   571  0FEB                     	;# 
   572  0FED                     	;# 
   573  0FEE                     	;# 
   574  0FEE                     	;# 
   575  0FEF                     	;# 
   576  0000                     	;# 
   577  0001                     	;# 
   578  0002                     	;# 
   579  0003                     	;# 
   580  0004                     	;# 
   581  0005                     	;# 
   582  0006                     	;# 
   583  0007                     	;# 
   584  0008                     	;# 
   585  0009                     	;# 
   586  000A                     	;# 
   587  000B                     	;# 
   588  000C                     	;# 
   589  0011                     	;# 
   590  0012                     	;# 
   591  0013                     	;# 
   592  0015                     	;# 
   593  0016                     	;# 
   594  0016                     	;# 
   595  0017                     	;# 
   596  0018                     	;# 
   597  0019                     	;# 
   598  001A                     	;# 
   599  001B                     	;# 
   600  001C                     	;# 
   601  008C                     	;# 
   602  0091                     	;# 
   603  0092                     	;# 
   604  0093                     	;# 
   605  0095                     	;# 
   606  0096                     	;# 
   607  0097                     	;# 
   608  0098                     	;# 
   609  0099                     	;# 
   610  009A                     	;# 
   611  009B                     	;# 
   612  009B                     	;# 
   613  009C                     	;# 
   614  009D                     	;# 
   615  009E                     	;# 
   616  009F                     	;# 
   617  010C                     	;# 
   618  0111                     	;# 
   619  0112                     	;# 
   620  0115                     	;# 
   621  0116                     	;# 
   622  0117                     	;# 
   623  0118                     	;# 
   624  0119                     	;# 
   625  011D                     	;# 
   626  011D                     	;# 
   627  018C                     	;# 
   628  0191                     	;# 
   629  0191                     	;# 
   630  0192                     	;# 
   631  0193                     	;# 
   632  0193                     	;# 
   633  0194                     	;# 
   634  0195                     	;# 
   635  0196                     	;# 
   636  0197                     	;# 
   637  0199                     	;# 
   638  019A                     	;# 
   639  019B                     	;# 
   640  019B                     	;# 
   641  019C                     	;# 
   642  019D                     	;# 
   643  019E                     	;# 
   644  019F                     	;# 
   645  020C                     	;# 
   646  028C                     	;# 
   647  030C                     	;# 
   648  038C                     	;# 
   649  0391                     	;# 
   650  0392                     	;# 
   651  0393                     	;# 
   652  0691                     	;# 
   653  0692                     	;# 
   654  0693                     	;# 
   655  0694                     	;# 
   656  0695                     	;# 
   657  0D8E                     	;# 
   658  0D8F                     	;# 
   659  0D90                     	;# 
   660  0D91                     	;# 
   661  0D91                     	;# 
   662  0D92                     	;# 
   663  0D93                     	;# 
   664  0D93                     	;# 
   665  0D94                     	;# 
   666  0D95                     	;# 
   667  0D95                     	;# 
   668  0D96                     	;# 
   669  0D97                     	;# 
   670  0D97                     	;# 
   671  0D98                     	;# 
   672  0D99                     	;# 
   673  0D99                     	;# 
   674  0D9A                     	;# 
   675  0D9B                     	;# 
   676  0D9C                     	;# 
   677  0D9C                     	;# 
   678  0D9D                     	;# 
   679  0D9D                     	;# 
   680  0D9E                     	;# 
   681  0D9F                     	;# 
   682  0DA0                     	;# 
   683  0DA1                     	;# 
   684  0DA1                     	;# 
   685  0DA2                     	;# 
   686  0DA3                     	;# 
   687  0DA3                     	;# 
   688  0DA4                     	;# 
   689  0DA5                     	;# 
   690  0DA5                     	;# 
   691  0DA6                     	;# 
   692  0DA7                     	;# 
   693  0DA7                     	;# 
   694  0DA8                     	;# 
   695  0DA9                     	;# 
   696  0DA9                     	;# 
   697  0DAA                     	;# 
   698  0DAB                     	;# 
   699  0DAC                     	;# 
   700  0DAC                     	;# 
   701  0DAD                     	;# 
   702  0DAD                     	;# 
   703  0DAE                     	;# 
   704  0DAF                     	;# 
   705  0DB0                     	;# 
   706  0DB1                     	;# 
   707  0DB1                     	;# 
   708  0DB2                     	;# 
   709  0DB3                     	;# 
   710  0DB3                     	;# 
   711  0DB4                     	;# 
   712  0DB5                     	;# 
   713  0DB5                     	;# 
   714  0DB6                     	;# 
   715  0DB7                     	;# 
   716  0DB7                     	;# 
   717  0DB8                     	;# 
   718  0DB9                     	;# 
   719  0DB9                     	;# 
   720  0DBA                     	;# 
   721  0DBB                     	;# 
   722  0DBC                     	;# 
   723  0DBC                     	;# 
   724  0DBD                     	;# 
   725  0DBD                     	;# 
   726  0DBE                     	;# 
   727  0DBF                     	;# 
   728  0DC0                     	;# 
   729  0FE4                     	;# 
   730  0FE5                     	;# 
   731  0FE6                     	;# 
   732  0FE7                     	;# 
   733  0FE8                     	;# 
   734  0FE8                     	;# 
   735  0FE9                     	;# 
   736  0FEA                     	;# 
   737  0FEA                     	;# 
   738  0FEB                     	;# 
   739  0FED                     	;# 
   740  0FEE                     	;# 
   741  0FEE                     	;# 
   742  0FEF                     	;# 
   743  0000                     	;# 
   744  0001                     	;# 
   745  0002                     	;# 
   746  0003                     	;# 
   747  0004                     	;# 
   748  0005                     	;# 
   749  0006                     	;# 
   750  0007                     	;# 
   751  0008                     	;# 
   752  0009                     	;# 
   753  000A                     	;# 
   754  000B                     	;# 
   755  000C                     	;# 
   756  0011                     	;# 
   757  0012                     	;# 
   758  0013                     	;# 
   759  0015                     	;# 
   760  0016                     	;# 
   761  0016                     	;# 
   762  0017                     	;# 
   763  0018                     	;# 
   764  0019                     	;# 
   765  001A                     	;# 
   766  001B                     	;# 
   767  001C                     	;# 
   768  008C                     	;# 
   769  0091                     	;# 
   770  0092                     	;# 
   771  0093                     	;# 
   772  0095                     	;# 
   773  0096                     	;# 
   774  0097                     	;# 
   775  0098                     	;# 
   776  0099                     	;# 
   777  009A                     	;# 
   778  009B                     	;# 
   779  009B                     	;# 
   780  009C                     	;# 
   781  009D                     	;# 
   782  009E                     	;# 
   783  009F                     	;# 
   784  010C                     	;# 
   785  0111                     	;# 
   786  0112                     	;# 
   787  0115                     	;# 
   788  0116                     	;# 
   789  0117                     	;# 
   790  0118                     	;# 
   791  0119                     	;# 
   792  011D                     	;# 
   793  011D                     	;# 
   794  018C                     	;# 
   795  0191                     	;# 
   796  0191                     	;# 
   797  0192                     	;# 
   798  0193                     	;# 
   799  0193                     	;# 
   800  0194                     	;# 
   801  0195                     	;# 
   802  0196                     	;# 
   803  0197                     	;# 
   804  0199                     	;# 
   805  019A                     	;# 
   806  019B                     	;# 
   807  019B                     	;# 
   808  019C                     	;# 
   809  019D                     	;# 
   810  019E                     	;# 
   811  019F                     	;# 
   812  020C                     	;# 
   813  028C                     	;# 
   814  030C                     	;# 
   815  038C                     	;# 
   816  0391                     	;# 
   817  0392                     	;# 
   818  0393                     	;# 
   819  0691                     	;# 
   820  0692                     	;# 
   821  0693                     	;# 
   822  0694                     	;# 
   823  0695                     	;# 
   824  0D8E                     	;# 
   825  0D8F                     	;# 
   826  0D90                     	;# 
   827  0D91                     	;# 
   828  0D91                     	;# 
   829  0D92                     	;# 
   830  0D93                     	;# 
   831  0D93                     	;# 
   832  0D94                     	;# 
   833  0D95                     	;# 
   834  0D95                     	;# 
   835  0D96                     	;# 
   836  0D97                     	;# 
   837  0D97                     	;# 
   838  0D98                     	;# 
   839  0D99                     	;# 
   840  0D99                     	;# 
   841  0D9A                     	;# 
   842  0D9B                     	;# 
   843  0D9C                     	;# 
   844  0D9C                     	;# 
   845  0D9D                     	;# 
   846  0D9D                     	;# 
   847  0D9E                     	;# 
   848  0D9F                     	;# 
   849  0DA0                     	;# 
   850  0DA1                     	;# 
   851  0DA1                     	;# 
   852  0DA2                     	;# 
   853  0DA3                     	;# 
   854  0DA3                     	;# 
   855  0DA4                     	;# 
   856  0DA5                     	;# 
   857  0DA5                     	;# 
   858  0DA6                     	;# 
   859  0DA7                     	;# 
   860  0DA7                     	;# 
   861  0DA8                     	;# 
   862  0DA9                     	;# 
   863  0DA9                     	;# 
   864  0DAA                     	;# 
   865  0DAB                     	;# 
   866  0DAC                     	;# 
   867  0DAC                     	;# 
   868  0DAD                     	;# 
   869  0DAD                     	;# 
   870  0DAE                     	;# 
   871  0DAF                     	;# 
   872  0DB0                     	;# 
   873  0DB1                     	;# 
   874  0DB1                     	;# 
   875  0DB2                     	;# 
   876  0DB3                     	;# 
   877  0DB3                     	;# 
   878  0DB4                     	;# 
   879  0DB5                     	;# 
   880  0DB5                     	;# 
   881  0DB6                     	;# 
   882  0DB7                     	;# 
   883  0DB7                     	;# 
   884  0DB8                     	;# 
   885  0DB9                     	;# 
   886  0DB9                     	;# 
   887  0DBA                     	;# 
   888  0DBB                     	;# 
   889  0DBC                     	;# 
   890  0DBC                     	;# 
   891  0DBD                     	;# 
   892  0DBD                     	;# 
   893  0DBE                     	;# 
   894  0DBF                     	;# 
   895  0DC0                     	;# 
   896  0FE4                     	;# 
   897  0FE5                     	;# 
   898  0FE6                     	;# 
   899  0FE7                     	;# 
   900  0FE8                     	;# 
   901  0FE8                     	;# 
   902  0FE9                     	;# 
   903  0FEA                     	;# 
   904  0FEA                     	;# 
   905  0FEB                     	;# 
   906  0FED                     	;# 
   907  0FEE                     	;# 
   908  0FEE                     	;# 
   909  0FEF                     	;# 
   910  0000                     	;# 
   911  0001                     	;# 
   912  0002                     	;# 
   913  0003                     	;# 
   914  0004                     	;# 
   915  0005                     	;# 
   916  0006                     	;# 
   917  0007                     	;# 
   918  0008                     	;# 
   919  0009                     	;# 
   920  000A                     	;# 
   921  000B                     	;# 
   922  000C                     	;# 
   923  0011                     	;# 
   924  0012                     	;# 
   925  0013                     	;# 
   926  0015                     	;# 
   927  0016                     	;# 
   928  0016                     	;# 
   929  0017                     	;# 
   930  0018                     	;# 
   931  0019                     	;# 
   932  001A                     	;# 
   933  001B                     	;# 
   934  001C                     	;# 
   935  008C                     	;# 
   936  0091                     	;# 
   937  0092                     	;# 
   938  0093                     	;# 
   939  0095                     	;# 
   940  0096                     	;# 
   941  0097                     	;# 
   942  0098                     	;# 
   943  0099                     	;# 
   944  009A                     	;# 
   945  009B                     	;# 
   946  009B                     	;# 
   947  009C                     	;# 
   948  009D                     	;# 
   949  009E                     	;# 
   950  009F                     	;# 
   951  010C                     	;# 
   952  0111                     	;# 
   953  0112                     	;# 
   954  0115                     	;# 
   955  0116                     	;# 
   956  0117                     	;# 
   957  0118                     	;# 
   958  0119                     	;# 
   959  011D                     	;# 
   960  011D                     	;# 
   961  018C                     	;# 
   962  0191                     	;# 
   963  0191                     	;# 
   964  0192                     	;# 
   965  0193                     	;# 
   966  0193                     	;# 
   967  0194                     	;# 
   968  0195                     	;# 
   969  0196                     	;# 
   970  0197                     	;# 
   971  0199                     	;# 
   972  019A                     	;# 
   973  019B                     	;# 
   974  019B                     	;# 
   975  019C                     	;# 
   976  019D                     	;# 
   977  019E                     	;# 
   978  019F                     	;# 
   979  020C                     	;# 
   980  028C                     	;# 
   981  030C                     	;# 
   982  038C                     	;# 
   983  0391                     	;# 
   984  0392                     	;# 
   985  0393                     	;# 
   986  0691                     	;# 
   987  0692                     	;# 
   988  0693                     	;# 
   989  0694                     	;# 
   990  0695                     	;# 
   991  0D8E                     	;# 
   992  0D8F                     	;# 
   993  0D90                     	;# 
   994  0D91                     	;# 
   995  0D91                     	;# 
   996  0D92                     	;# 
   997  0D93                     	;# 
   998  0D93                     	;# 
   999  0D94                     	;# 
  1000  0D95                     	;# 
  1001  0D95                     	;# 
  1002  0D96                     	;# 
  1003  0D97                     	;# 
  1004  0D97                     	;# 
  1005  0D98                     	;# 
  1006  0D99                     	;# 
  1007  0D99                     	;# 
  1008  0D9A                     	;# 
  1009  0D9B                     	;# 
  1010  0D9C                     	;# 
  1011  0D9C                     	;# 
  1012  0D9D                     	;# 
  1013  0D9D                     	;# 
  1014  0D9E                     	;# 
  1015  0D9F                     	;# 
  1016  0DA0                     	;# 
  1017  0DA1                     	;# 
  1018  0DA1                     	;# 
  1019  0DA2                     	;# 
  1020  0DA3                     	;# 
  1021  0DA3                     	;# 
  1022  0DA4                     	;# 
  1023  0DA5                     	;# 
  1024  0DA5                     	;# 
  1025  0DA6                     	;# 
  1026  0DA7                     	;# 
  1027  0DA7                     	;# 
  1028  0DA8                     	;# 
  1029  0DA9                     	;# 
  1030  0DA9                     	;# 
  1031  0DAA                     	;# 
  1032  0DAB                     	;# 
  1033  0DAC                     	;# 
  1034  0DAC                     	;# 
  1035  0DAD                     	;# 
  1036  0DAD                     	;# 
  1037  0DAE                     	;# 
  1038  0DAF                     	;# 
  1039  0DB0                     	;# 
  1040  0DB1                     	;# 
  1041  0DB1                     	;# 
  1042  0DB2                     	;# 
  1043  0DB3                     	;# 
  1044  0DB3                     	;# 
  1045  0DB4                     	;# 
  1046  0DB5                     	;# 
  1047  0DB5                     	;# 
  1048  0DB6                     	;# 
  1049  0DB7                     	;# 
  1050  0DB7                     	;# 
  1051  0DB8                     	;# 
  1052  0DB9                     	;# 
  1053  0DB9                     	;# 
  1054  0DBA                     	;# 
  1055  0DBB                     	;# 
  1056  0DBC                     	;# 
  1057  0DBC                     	;# 
  1058  0DBD                     	;# 
  1059  0DBD                     	;# 
  1060  0DBE                     	;# 
  1061  0DBF                     	;# 
  1062  0DC0                     	;# 
  1063  0FE4                     	;# 
  1064  0FE5                     	;# 
  1065  0FE6                     	;# 
  1066  0FE7                     	;# 
  1067  0FE8                     	;# 
  1068  0FE8                     	;# 
  1069  0FE9                     	;# 
  1070  0FEA                     	;# 
  1071  0FEA                     	;# 
  1072  0FEB                     	;# 
  1073  0FED                     	;# 
  1074  0FEE                     	;# 
  1075  0FEE                     	;# 
  1076  0FEF                     	;# 
  1077  0000                     	;# 
  1078  0001                     	;# 
  1079  0002                     	;# 
  1080  0003                     	;# 
  1081  0004                     	;# 
  1082  0005                     	;# 
  1083  0006                     	;# 
  1084  0007                     	;# 
  1085  0008                     	;# 
  1086  0009                     	;# 
  1087  000A                     	;# 
  1088  000B                     	;# 
  1089  000C                     	;# 
  1090  0011                     	;# 
  1091  0012                     	;# 
  1092  0013                     	;# 
  1093  0015                     	;# 
  1094  0016                     	;# 
  1095  0016                     	;# 
  1096  0017                     	;# 
  1097  0018                     	;# 
  1098  0019                     	;# 
  1099  001A                     	;# 
  1100  001B                     	;# 
  1101  001C                     	;# 
  1102  008C                     	;# 
  1103  0091                     	;# 
  1104  0092                     	;# 
  1105  0093                     	;# 
  1106  0095                     	;# 
  1107  0096                     	;# 
  1108  0097                     	;# 
  1109  0098                     	;# 
  1110  0099                     	;# 
  1111  009A                     	;# 
  1112  009B                     	;# 
  1113  009B                     	;# 
  1114  009C                     	;# 
  1115  009D                     	;# 
  1116  009E                     	;# 
  1117  009F                     	;# 
  1118  010C                     	;# 
  1119  0111                     	;# 
  1120  0112                     	;# 
  1121  0115                     	;# 
  1122  0116                     	;# 
  1123  0117                     	;# 
  1124  0118                     	;# 
  1125  0119                     	;# 
  1126  011D                     	;# 
  1127  011D                     	;# 
  1128  018C                     	;# 
  1129  0191                     	;# 
  1130  0191                     	;# 
  1131  0192                     	;# 
  1132  0193                     	;# 
  1133  0193                     	;# 
  1134  0194                     	;# 
  1135  0195                     	;# 
  1136  0196                     	;# 
  1137  0197                     	;# 
  1138  0199                     	;# 
  1139  019A                     	;# 
  1140  019B                     	;# 
  1141  019B                     	;# 
  1142  019C                     	;# 
  1143  019D                     	;# 
  1144  019E                     	;# 
  1145  019F                     	;# 
  1146  020C                     	;# 
  1147  028C                     	;# 
  1148  030C                     	;# 
  1149  038C                     	;# 
  1150  0391                     	;# 
  1151  0392                     	;# 
  1152  0393                     	;# 
  1153  0691                     	;# 
  1154  0692                     	;# 
  1155  0693                     	;# 
  1156  0694                     	;# 
  1157  0695                     	;# 
  1158  0D8E                     	;# 
  1159  0D8F                     	;# 
  1160  0D90                     	;# 
  1161  0D91                     	;# 
  1162  0D91                     	;# 
  1163  0D92                     	;# 
  1164  0D93                     	;# 
  1165  0D93                     	;# 
  1166  0D94                     	;# 
  1167  0D95                     	;# 
  1168  0D95                     	;# 
  1169  0D96                     	;# 
  1170  0D97                     	;# 
  1171  0D97                     	;# 
  1172  0D98                     	;# 
  1173  0D99                     	;# 
  1174  0D99                     	;# 
  1175  0D9A                     	;# 
  1176  0D9B                     	;# 
  1177  0D9C                     	;# 
  1178  0D9C                     	;# 
  1179  0D9D                     	;# 
  1180  0D9D                     	;# 
  1181  0D9E                     	;# 
  1182  0D9F                     	;# 
  1183  0DA0                     	;# 
  1184  0DA1                     	;# 
  1185  0DA1                     	;# 
  1186  0DA2                     	;# 
  1187  0DA3                     	;# 
  1188  0DA3                     	;# 
  1189  0DA4                     	;# 
  1190  0DA5                     	;# 
  1191  0DA5                     	;# 
  1192  0DA6                     	;# 
  1193  0DA7                     	;# 
  1194  0DA7                     	;# 
  1195  0DA8                     	;# 
  1196  0DA9                     	;# 
  1197  0DA9                     	;# 
  1198  0DAA                     	;# 
  1199  0DAB                     	;# 
  1200  0DAC                     	;# 
  1201  0DAC                     	;# 
  1202  0DAD                     	;# 
  1203  0DAD                     	;# 
  1204  0DAE                     	;# 
  1205  0DAF                     	;# 
  1206  0DB0                     	;# 
  1207  0DB1                     	;# 
  1208  0DB1                     	;# 
  1209  0DB2                     	;# 
  1210  0DB3                     	;# 
  1211  0DB3                     	;# 
  1212  0DB4                     	;# 
  1213  0DB5                     	;# 
  1214  0DB5                     	;# 
  1215  0DB6                     	;# 
  1216  0DB7                     	;# 
  1217  0DB7                     	;# 
  1218  0DB8                     	;# 
  1219  0DB9                     	;# 
  1220  0DB9                     	;# 
  1221  0DBA                     	;# 
  1222  0DBB                     	;# 
  1223  0DBC                     	;# 
  1224  0DBC                     	;# 
  1225  0DBD                     	;# 
  1226  0DBD                     	;# 
  1227  0DBE                     	;# 
  1228  0DBF                     	;# 
  1229  0DC0                     	;# 
  1230  0FE4                     	;# 
  1231  0FE5                     	;# 
  1232  0FE6                     	;# 
  1233  0FE7                     	;# 
  1234  0FE8                     	;# 
  1235  0FE8                     	;# 
  1236  0FE9                     	;# 
  1237  0FEA                     	;# 
  1238  0FEA                     	;# 
  1239  0FEB                     	;# 
  1240  0FED                     	;# 
  1241  0FEE                     	;# 
  1242  0FEE                     	;# 
  1243  0FEF                     	;# 
  1244  0000                     	;# 
  1245  0001                     	;# 
  1246  0002                     	;# 
  1247  0003                     	;# 
  1248  0004                     	;# 
  1249  0005                     	;# 
  1250  0006                     	;# 
  1251  0007                     	;# 
  1252  0008                     	;# 
  1253  0009                     	;# 
  1254  000A                     	;# 
  1255  000B                     	;# 
  1256  000C                     	;# 
  1257  0011                     	;# 
  1258  0012                     	;# 
  1259  0013                     	;# 
  1260  0015                     	;# 
  1261  0016                     	;# 
  1262  0016                     	;# 
  1263  0017                     	;# 
  1264  0018                     	;# 
  1265  0019                     	;# 
  1266  001A                     	;# 
  1267  001B                     	;# 
  1268  001C                     	;# 
  1269  008C                     	;# 
  1270  0091                     	;# 
  1271  0092                     	;# 
  1272  0093                     	;# 
  1273  0095                     	;# 
  1274  0096                     	;# 
  1275  0097                     	;# 
  1276  0098                     	;# 
  1277  0099                     	;# 
  1278  009A                     	;# 
  1279  009B                     	;# 
  1280  009B                     	;# 
  1281  009C                     	;# 
  1282  009D                     	;# 
  1283  009E                     	;# 
  1284  009F                     	;# 
  1285  010C                     	;# 
  1286  0111                     	;# 
  1287  0112                     	;# 
  1288  0115                     	;# 
  1289  0116                     	;# 
  1290  0117                     	;# 
  1291  0118                     	;# 
  1292  0119                     	;# 
  1293  011D                     	;# 
  1294  011D                     	;# 
  1295  018C                     	;# 
  1296  0191                     	;# 
  1297  0191                     	;# 
  1298  0192                     	;# 
  1299  0193                     	;# 
  1300  0193                     	;# 
  1301  0194                     	;# 
  1302  0195                     	;# 
  1303  0196                     	;# 
  1304  0197                     	;# 
  1305  0199                     	;# 
  1306  019A                     	;# 
  1307  019B                     	;# 
  1308  019B                     	;# 
  1309  019C                     	;# 
  1310  019D                     	;# 
  1311  019E                     	;# 
  1312  019F                     	;# 
  1313  020C                     	;# 
  1314  028C                     	;# 
  1315  030C                     	;# 
  1316  038C                     	;# 
  1317  0391                     	;# 
  1318  0392                     	;# 
  1319  0393                     	;# 
  1320  0691                     	;# 
  1321  0692                     	;# 
  1322  0693                     	;# 
  1323  0694                     	;# 
  1324  0695                     	;# 
  1325  0D8E                     	;# 
  1326  0D8F                     	;# 
  1327  0D90                     	;# 
  1328  0D91                     	;# 
  1329  0D91                     	;# 
  1330  0D92                     	;# 
  1331  0D93                     	;# 
  1332  0D93                     	;# 
  1333  0D94                     	;# 
  1334  0D95                     	;# 
  1335  0D95                     	;# 
  1336  0D96                     	;# 
  1337  0D97                     	;# 
  1338  0D97                     	;# 
  1339  0D98                     	;# 
  1340  0D99                     	;# 
  1341  0D99                     	;# 
  1342  0D9A                     	;# 
  1343  0D9B                     	;# 
  1344  0D9C                     	;# 
  1345  0D9C                     	;# 
  1346  0D9D                     	;# 
  1347  0D9D                     	;# 
  1348  0D9E                     	;# 
  1349  0D9F                     	;# 
  1350  0DA0                     	;# 
  1351  0DA1                     	;# 
  1352  0DA1                     	;# 
  1353  0DA2                     	;# 
  1354  0DA3                     	;# 
  1355  0DA3                     	;# 
  1356  0DA4                     	;# 
  1357  0DA5                     	;# 
  1358  0DA5                     	;# 
  1359  0DA6                     	;# 
  1360  0DA7                     	;# 
  1361  0DA7                     	;# 
  1362  0DA8                     	;# 
  1363  0DA9                     	;# 
  1364  0DA9                     	;# 
  1365  0DAA                     	;# 
  1366  0DAB                     	;# 
  1367  0DAC                     	;# 
  1368  0DAC                     	;# 
  1369  0DAD                     	;# 
  1370  0DAD                     	;# 
  1371  0DAE                     	;# 
  1372  0DAF                     	;# 
  1373  0DB0                     	;# 
  1374  0DB1                     	;# 
  1375  0DB1                     	;# 
  1376  0DB2                     	;# 
  1377  0DB3                     	;# 
  1378  0DB3                     	;# 
  1379  0DB4                     	;# 
  1380  0DB5                     	;# 
  1381  0DB5                     	;# 
  1382  0DB6                     	;# 
  1383  0DB7                     	;# 
  1384  0DB7                     	;# 
  1385  0DB8                     	;# 
  1386  0DB9                     	;# 
  1387  0DB9                     	;# 
  1388  0DBA                     	;# 
  1389  0DBB                     	;# 
  1390  0DBC                     	;# 
  1391  0DBC                     	;# 
  1392  0DBD                     	;# 
  1393  0DBD                     	;# 
  1394  0DBE                     	;# 
  1395  0DBF                     	;# 
  1396  0DC0                     	;# 
  1397  0FE4                     	;# 
  1398  0FE5                     	;# 
  1399  0FE6                     	;# 
  1400  0FE7                     	;# 
  1401  0FE8                     	;# 
  1402  0FE8                     	;# 
  1403  0FE9                     	;# 
  1404  0FEA                     	;# 
  1405  0FEA                     	;# 
  1406  0FEB                     	;# 
  1407  0FED                     	;# 
  1408  0FEE                     	;# 
  1409  0FEE                     	;# 
  1410  0FEF                     	;# 
  1411  0011                     _PIR1bits	set	17
  1412  009D                     _ADCON0bits	set	157
  1413  009C                     _ADRESH	set	156
  1414  009B                     _ADRESL	set	155
  1415  009F                     _ADCON2	set	159
  1416  009E                     _ADCON1	set	158
  1417  009D                     _ADCON0	set	157
  1418  0095                     _OPTION_REGbits	set	149
  1419  008C                     _TRISA	set	140
  1420  0097                     _WDTCON	set	151
  1421  0098                     _OSCTUNE	set	152
  1422  0099                     _OSCCON	set	153
  1423  011D                     _APFCON	set	285
  1424  010C                     _LATA	set	268
  1425  0116                     _BORCON	set	278
  1426  019A                     _TXREG	set	410
  1427  0199                     _RCREG	set	409
  1428  019D                     _RCSTAbits	set	413
  1429  019E                     _TXSTAbits	set	414
  1430  019C                     _SPBRGH	set	412
  1431  019B                     _SPBRGL	set	411
  1432  019E                     _TXSTA	set	414
  1433  019D                     _RCSTA	set	413
  1434  019F                     _BAUDCON	set	415
  1435  018C                     _ANSELA	set	396
  1436  020C                     _WPUA	set	524
  1437  028C                     _ODCONA	set	652
  1438  0D9D                     _PWM1INTFbits	set	3485
  1439  0D9F                     _PWM1LDCONbits	set	3487
  1440  0D9B                     _PWM1CONbits	set	3483
  1441  0D9B                     _PWM1CON	set	3483
  1442  0D99                     _PWM1TMRL	set	3481
  1443  0D9A                     _PWM1TMRH	set	3482
  1444  0D97                     _PWM1OFL	set	3479
  1445  0D98                     _PWM1OFH	set	3480
  1446  0D95                     _PWM1PRL	set	3477
  1447  0D96                     _PWM1PRH	set	3478
  1448  0D93                     _PWM1DCL	set	3475
  1449  0D94                     _PWM1DCH	set	3476
  1450  0D91                     _PWM1PHL	set	3473
  1451  0D92                     _PWM1PHH	set	3474
  1452  0DA0                     _PWM1OFCON	set	3488
  1453  0D9F                     _PWM1LDCON	set	3487
  1454  0D9E                     _PWM1CLKCON	set	3486
  1455  0D9D                     _PWM1INTF	set	3485
  1456  0D9C                     _PWM1INTE	set	3484
  1457  0DAD                     _PWM2INTFbits	set	3501
  1458  0DAF                     _PWM2LDCONbits	set	3503
  1459  0DAB                     _PWM2CONbits	set	3499
  1460  0DAB                     _PWM2CON	set	3499
  1461  0DA9                     _PWM2TMRL	set	3497
  1462  0DAA                     _PWM2TMRH	set	3498
  1463  0DA7                     _PWM2OFL	set	3495
  1464  0DA8                     _PWM2OFH	set	3496
  1465  0DA5                     _PWM2PRL	set	3493
  1466  0DA6                     _PWM2PRH	set	3494
  1467  0DA3                     _PWM2DCL	set	3491
  1468  0DA4                     _PWM2DCH	set	3492
  1469  0DA1                     _PWM2PHL	set	3489
  1470  0DA2                     _PWM2PHH	set	3490
  1471  0DB0                     _PWM2OFCON	set	3504
  1472  0DAF                     _PWM2LDCON	set	3503
  1473  0DAE                     _PWM2CLKCON	set	3502
  1474  0DAD                     _PWM2INTF	set	3501
  1475  0DAC                     _PWM2INTE	set	3500
  1476  0DBD                     _PWM3INTFbits	set	3517
  1477  0DBF                     _PWM3LDCONbits	set	3519
  1478  0DBB                     _PWM3CONbits	set	3515
  1479  0DBB                     _PWM3CON	set	3515
  1480  0DB9                     _PWM3TMRL	set	3513
  1481  0DBA                     _PWM3TMRH	set	3514
  1482  0DB7                     _PWM3OFL	set	3511
  1483  0DB8                     _PWM3OFH	set	3512
  1484  0DB5                     _PWM3PRL	set	3509
  1485  0DB6                     _PWM3PRH	set	3510
  1486  0DB3                     _PWM3DCL	set	3507
  1487  0DB4                     _PWM3DCH	set	3508
  1488  0DB1                     _PWM3PHL	set	3505
  1489  0DB2                     _PWM3PHH	set	3506
  1490  0DC0                     _PWM3OFCON	set	3520
  1491  0DBF                     _PWM3LDCON	set	3519
  1492  0DBE                     _PWM3CLKCON	set	3518
  1493  0DBD                     _PWM3INTF	set	3517
  1494  0DBC                     _PWM3INTE	set	3516
  1495                           
  1496                           ; #config settings
  1497  0000                     
  1498                           	psect	cinit
  1499  07FE                     start_initialization:	
  1500  07FE                     __initialization:	
  1501  07FE                     end_of_initialization:	
  1502                           ;End of C runtime variable initialization code
  1503                           
  1504  07FE                     __end_of__initialization:	
  1505  07FE  0020               	movlb	0
  1506  07FF  2F15               	ljmp	_main	;jump to C main() function
  1507                           
  1508                           	psect	cstackCOMMON
  1509  0070                     __pcstackCOMMON:	
  1510  0070                     ?_PIN_MANAGER_Initialize:	
  1511  0070                     ??_PIN_MANAGER_Initialize:	
  1512                           ; 1 bytes @ 0x0
  1513                           
  1514  0070                     ?_OSCILLATOR_Initialize:	
  1515                           ; 1 bytes @ 0x0
  1516                           
  1517  0070                     ??_OSCILLATOR_Initialize:	
  1518                           ; 1 bytes @ 0x0
  1519                           
  1520  0070                     ?_WDT_Initialize:	
  1521                           ; 1 bytes @ 0x0
  1522                           
  1523  0070                     ??_WDT_Initialize:	
  1524                           ; 1 bytes @ 0x0
  1525                           
  1526  0070                     ?_PWM1_Initialize:	
  1527                           ; 1 bytes @ 0x0
  1528                           
  1529  0070                     ??_PWM1_Initialize:	
  1530                           ; 1 bytes @ 0x0
  1531                           
  1532  0070                     ?_PWM2_Initialize:	
  1533                           ; 1 bytes @ 0x0
  1534                           
  1535  0070                     ??_PWM2_Initialize:	
  1536                           ; 1 bytes @ 0x0
  1537                           
  1538  0070                     ?_ADC1_Initialize:	
  1539                           ; 1 bytes @ 0x0
  1540                           
  1541  0070                     ??_ADC1_Initialize:	
  1542                           ; 1 bytes @ 0x0
  1543                           
  1544  0070                     ?_PWM3_Initialize:	
  1545                           ; 1 bytes @ 0x0
  1546                           
  1547  0070                     ??_PWM3_Initialize:	
  1548                           ; 1 bytes @ 0x0
  1549                           
  1550  0070                     ?_EUSART_Initialize:	
  1551                           ; 1 bytes @ 0x0
  1552                           
  1553  0070                     ??_EUSART_Initialize:	
  1554                           ; 1 bytes @ 0x0
  1555                           
  1556  0070                     ?_SYSTEM_Initialize:	
  1557                           ; 1 bytes @ 0x0
  1558                           
  1559  0070                     ??_SYSTEM_Initialize:	
  1560                           ; 1 bytes @ 0x0
  1561                           
  1562  0070                     ?_PWM3_Start:	
  1563                           ; 1 bytes @ 0x0
  1564                           
  1565  0070                     ??_PWM3_Start:	
  1566                           ; 1 bytes @ 0x0
  1567                           
  1568  0070                     ?_PWM3_Stop:	
  1569                           ; 1 bytes @ 0x0
  1570                           
  1571  0070                     ??_PWM3_Stop:	
  1572                           ; 1 bytes @ 0x0
  1573                           
  1574  0070                     ?_PWM3_LoadBufferSet:	
  1575                           ; 1 bytes @ 0x0
  1576                           
  1577  0070                     ??_PWM3_LoadBufferSet:	
  1578                           ; 1 bytes @ 0x0
  1579                           
  1580  0070                     ?_PWM3_PhaseSet:	
  1581                           ; 1 bytes @ 0x0
  1582                           
  1583  0070                     ?_PWM3_DutyCycleSet:	
  1584                           ; 1 bytes @ 0x0
  1585                           
  1586  0070                     ?_PWM3_PeriodSet:	
  1587                           ; 1 bytes @ 0x0
  1588                           
  1589  0070                     ?_PWM2_Start:	
  1590                           ; 1 bytes @ 0x0
  1591                           
  1592  0070                     ??_PWM2_Start:	
  1593                           ; 1 bytes @ 0x0
  1594                           
  1595  0070                     ?_PWM2_Stop:	
  1596                           ; 1 bytes @ 0x0
  1597                           
  1598  0070                     ??_PWM2_Stop:	
  1599                           ; 1 bytes @ 0x0
  1600                           
  1601  0070                     ?_PWM2_LoadBufferSet:	
  1602                           ; 1 bytes @ 0x0
  1603                           
  1604  0070                     ??_PWM2_LoadBufferSet:	
  1605                           ; 1 bytes @ 0x0
  1606                           
  1607  0070                     ?_PWM2_PhaseSet:	
  1608                           ; 1 bytes @ 0x0
  1609                           
  1610  0070                     ?_PWM2_DutyCycleSet:	
  1611                           ; 1 bytes @ 0x0
  1612                           
  1613  0070                     ?_PWM2_PeriodSet:	
  1614                           ; 1 bytes @ 0x0
  1615                           
  1616  0070                     ?_PWM1_Start:	
  1617                           ; 1 bytes @ 0x0
  1618                           
  1619  0070                     ??_PWM1_Start:	
  1620                           ; 1 bytes @ 0x0
  1621                           
  1622  0070                     ?_PWM1_Stop:	
  1623                           ; 1 bytes @ 0x0
  1624                           
  1625  0070                     ??_PWM1_Stop:	
  1626                           ; 1 bytes @ 0x0
  1627                           
  1628  0070                     ?_PWM1_LoadBufferSet:	
  1629                           ; 1 bytes @ 0x0
  1630                           
  1631  0070                     ??_PWM1_LoadBufferSet:	
  1632                           ; 1 bytes @ 0x0
  1633                           
  1634  0070                     ?_PWM1_PhaseSet:	
  1635                           ; 1 bytes @ 0x0
  1636                           
  1637  0070                     ?_PWM1_DutyCycleSet:	
  1638                           ; 1 bytes @ 0x0
  1639                           
  1640  0070                     ?_PWM1_PeriodSet:	
  1641                           ; 1 bytes @ 0x0
  1642                           
  1643  0070                     ?_EUSART_is_tx_done:	
  1644                           ; 1 bytes @ 0x0
  1645                           
  1646  0070                     ??_EUSART_is_tx_done:	
  1647                           ; 1 bytes @ 0x0
  1648                           
  1649  0070                     ?_EUSART_Read:	
  1650                           ; 1 bytes @ 0x0
  1651                           
  1652  0070                     ??_EUSART_Read:	
  1653                           ; 1 bytes @ 0x0
  1654                           
  1655  0070                     ?_EUSART_Write:	
  1656                           ; 1 bytes @ 0x0
  1657                           
  1658  0070                     ??_EUSART_Write:	
  1659                           ; 1 bytes @ 0x0
  1660                           
  1661  0070                     ?_main:	
  1662                           ; 1 bytes @ 0x0
  1663                           
  1664  0070                     ?_ADC1_GetConversion:	
  1665                           ; 1 bytes @ 0x0
  1666                           
  1667  0070                     EUSART_Write@txData:	
  1668                           ; 2 bytes @ 0x0
  1669                           
  1670  0070                     PWM3_PhaseSet@phaseCount:	
  1671                           ; 1 bytes @ 0x0
  1672                           
  1673  0070                     PWM3_DutyCycleSet@dutyCycleCount:	
  1674                           ; 2 bytes @ 0x0
  1675                           
  1676  0070                     PWM3_PeriodSet@periodCount:	
  1677                           ; 2 bytes @ 0x0
  1678                           
  1679  0070                     PWM2_PhaseSet@phaseCount:	
  1680                           ; 2 bytes @ 0x0
  1681                           
  1682  0070                     PWM2_DutyCycleSet@dutyCycleCount:	
  1683                           ; 2 bytes @ 0x0
  1684                           
  1685  0070                     PWM2_PeriodSet@periodCount:	
  1686                           ; 2 bytes @ 0x0
  1687                           
  1688  0070                     PWM1_PhaseSet@phaseCount:	
  1689                           ; 2 bytes @ 0x0
  1690                           
  1691  0070                     PWM1_DutyCycleSet@dutyCycleCount:	
  1692                           ; 2 bytes @ 0x0
  1693                           
  1694  0070                     PWM1_PeriodSet@periodCount:	
  1695                           ; 2 bytes @ 0x0
  1696                           
  1697                           
  1698                           ; 2 bytes @ 0x0
  1699  0070                     	ds	2
  1700  0072                     ??_PWM3_PhaseSet:	
  1701  0072                     ??_PWM3_DutyCycleSet:	
  1702                           ; 1 bytes @ 0x2
  1703                           
  1704  0072                     ??_PWM3_PeriodSet:	
  1705                           ; 1 bytes @ 0x2
  1706                           
  1707  0072                     ??_PWM2_PhaseSet:	
  1708                           ; 1 bytes @ 0x2
  1709                           
  1710  0072                     ??_PWM2_DutyCycleSet:	
  1711                           ; 1 bytes @ 0x2
  1712                           
  1713  0072                     ??_PWM2_PeriodSet:	
  1714                           ; 1 bytes @ 0x2
  1715                           
  1716  0072                     ??_PWM1_PhaseSet:	
  1717                           ; 1 bytes @ 0x2
  1718                           
  1719  0072                     ??_PWM1_DutyCycleSet:	
  1720                           ; 1 bytes @ 0x2
  1721                           
  1722  0072                     ??_PWM1_PeriodSet:	
  1723                           ; 1 bytes @ 0x2
  1724                           
  1725  0072                     ??_ADC1_GetConversion:	
  1726                           ; 1 bytes @ 0x2
  1727                           
  1728                           
  1729                           ; 1 bytes @ 0x2
  1730  0072                     	ds	1
  1731  0073                     ADC1_GetConversion@channel:	
  1732                           
  1733                           ; 1 bytes @ 0x3
  1734  0073                     	ds	1
  1735  0074                     ??_main:	
  1736                           
  1737                           ; 1 bytes @ 0x4
  1738  0074                     	ds	4
  1739                           
  1740                           	psect	cstackBANK0
  1741  0020                     __pcstackBANK0:	
  1742  0020                     main@receive:	
  1743                           
  1744                           ; 1 bytes @ 0x0
  1745  0020                     	ds	1
  1746  0021                     main@PERIOD:	
  1747                           
  1748                           ; 2 bytes @ 0x1
  1749  0021                     	ds	2
  1750  0023                     main@LED1:	
  1751                           
  1752                           ; 2 bytes @ 0x3
  1753  0023                     	ds	2
  1754  0025                     main@LED2:	
  1755                           
  1756                           ; 2 bytes @ 0x5
  1757  0025                     	ds	2
  1758  0027                     main@LED3:	
  1759                           
  1760                           ; 2 bytes @ 0x7
  1761  0027                     	ds	2
  1762  0029                     main@adc_result:	
  1763                           
  1764                           ; 2 bytes @ 0x9
  1765  0029                     	ds	2
  1766                           
  1767                           	psect	maintext
  1768  0715                     __pmaintext:	
  1769 ;;
  1770 ;;Main: autosize = 0, tempsize = 4, incstack = 0, save=0
  1771 ;;
  1772 ;; *************** function _main *****************
  1773 ;; Defined at:
  1774 ;;		line 49 in file "main.c"
  1775 ;; Parameters:    Size  Location     Type
  1776 ;;		None
  1777 ;; Auto vars:     Size  Location     Type
  1778 ;;  adc_result      2    9[BANK0 ] unsigned short 
  1779 ;;  receive         1    0[BANK0 ] unsigned char 
  1780 ;;  LED3            2    7[BANK0 ] unsigned short 
  1781 ;;  LED2            2    5[BANK0 ] unsigned short 
  1782 ;;  LED1            2    3[BANK0 ] unsigned short 
  1783 ;;  PERIOD          2    1[BANK0 ] unsigned short 
  1784 ;; Return value:  Size  Location     Type
  1785 ;;                  1    wreg      void 
  1786 ;; Registers used:
  1787 ;;		wreg, status,2, status,0, pclath, cstack
  1788 ;; Tracked objects:
  1789 ;;		On entry : B1F/0
  1790 ;;		On exit  : 0/0
  1791 ;;		Unchanged: 0/0
  1792 ;; Data sizes:     COMMON   BANK0   BANK1   BANK2
  1793 ;;      Params:         0       0       0       0
  1794 ;;      Locals:         0      11       0       0
  1795 ;;      Temps:          4       0       0       0
  1796 ;;      Totals:         4      11       0       0
  1797 ;;Total ram usage:       15 bytes
  1798 ;; Hardware stack levels required when called:    2
  1799 ;; This function calls:
  1800 ;;		_ADC1_GetConversion
  1801 ;;		_EUSART_Read
  1802 ;;		_EUSART_Write
  1803 ;;		_EUSART_is_tx_done
  1804 ;;		_PWM1_DutyCycleSet
  1805 ;;		_PWM1_LoadBufferSet
  1806 ;;		_PWM1_PeriodSet
  1807 ;;		_PWM1_PhaseSet
  1808 ;;		_PWM1_Start
  1809 ;;		_PWM1_Stop
  1810 ;;		_PWM2_DutyCycleSet
  1811 ;;		_PWM2_LoadBufferSet
  1812 ;;		_PWM2_PeriodSet
  1813 ;;		_PWM2_PhaseSet
  1814 ;;		_PWM2_Start
  1815 ;;		_PWM2_Stop
  1816 ;;		_PWM3_DutyCycleSet
  1817 ;;		_PWM3_LoadBufferSet
  1818 ;;		_PWM3_PeriodSet
  1819 ;;		_PWM3_PhaseSet
  1820 ;;		_PWM3_Start
  1821 ;;		_PWM3_Stop
  1822 ;;		_SYSTEM_Initialize
  1823 ;; This function is called by:
  1824 ;;		Startup code after reset
  1825 ;; This function uses a non-reentrant model
  1826 ;;
  1827                           
  1828                           
  1829                           ;psect for function _main
  1830  0715                     _main:	
  1831                           
  1832                           ;main.c: 52:     SYSTEM_Initialize();
  1833                           
  1834                           ;incstack = 0
  1835                           ; Regs used in _main: [wreg+status,2+status,0+pclath+cstack]
  1836  0715  2691               	fcall	_SYSTEM_Initialize
  1837                           
  1838                           ;main.c: 54:     uint16_t LED1 = 100;
  1839  0716  3064               	movlw	100
  1840  0717  0020               	movlb	0	; select bank0
  1841  0718  00A3               	movwf	main@LED1
  1842  0719  3000               	movlw	0
  1843  071A  00A4               	movwf	main@LED1+1
  1844                           
  1845                           ;main.c: 55:     uint16_t LED2 = 200;
  1846  071B  30C8               	movlw	200
  1847  071C  00A5               	movwf	main@LED2
  1848  071D  3000               	movlw	0
  1849  071E  00A6               	movwf	main@LED2+1
  1850                           
  1851                           ;main.c: 56:     uint16_t LED3 = 0;
  1852  071F  01A7               	clrf	main@LED3
  1853  0720  01A8               	clrf	main@LED3+1
  1854                           
  1855                           ;main.c: 57:     uint16_t PERIOD = 2000;
  1856  0721  30D0               	movlw	208
  1857  0722  00A1               	movwf	main@PERIOD
  1858  0723  3007               	movlw	7
  1859  0724  00A2               	movwf	main@PERIOD+1
  1860                           
  1861                           ;main.c: 59:     PWM1_Stop();
  1862  0725  2627               	fcall	_PWM1_Stop
  1863                           
  1864                           ;main.c: 60:     PWM2_Stop();
  1865  0726  2630               	fcall	_PWM2_Stop
  1866                           
  1867                           ;main.c: 61:     PWM3_Stop();
  1868  0727  2639               	fcall	_PWM3_Stop
  1869                           
  1870                           ;main.c: 63:     PWM1_PhaseSet(0);
  1871  0728  3000               	movlw	0
  1872  0729  00F0               	movwf	PWM1_PhaseSet@phaseCount
  1873  072A  00F1               	movwf	PWM1_PhaseSet@phaseCount+1
  1874  072B  2650               	fcall	_PWM1_PhaseSet
  1875                           
  1876                           ;main.c: 64:     PWM1_PeriodSet(PERIOD);
  1877  072C  0020               	movlb	0	; select bank0
  1878  072D  0822               	movf	main@PERIOD+1,w
  1879  072E  00F1               	movwf	PWM1_PeriodSet@periodCount+1
  1880  072F  0821               	movf	main@PERIOD,w
  1881  0730  00F0               	movwf	PWM1_PeriodSet@periodCount
  1882  0731  264A               	fcall	_PWM1_PeriodSet
  1883                           
  1884                           ;main.c: 65:     PWM1_DutyCycleSet(LED1);
  1885  0732  0020               	movlb	0	; select bank0
  1886  0733  0824               	movf	main@LED1+1,w
  1887  0734  00F1               	movwf	PWM1_DutyCycleSet@dutyCycleCount+1
  1888  0735  0823               	movf	main@LED1,w
  1889  0736  00F0               	movwf	PWM1_DutyCycleSet@dutyCycleCount
  1890  0737  2644               	fcall	_PWM1_DutyCycleSet
  1891                           
  1892                           ;main.c: 67:     PWM2_PhaseSet(0);
  1893  0738  3000               	movlw	0
  1894  0739  00F0               	movwf	PWM2_PhaseSet@phaseCount
  1895  073A  00F1               	movwf	PWM2_PhaseSet@phaseCount+1
  1896  073B  2662               	fcall	_PWM2_PhaseSet
  1897                           
  1898                           ;main.c: 68:     PWM2_PeriodSet(PERIOD);
  1899  073C  0020               	movlb	0	; select bank0
  1900  073D  0822               	movf	main@PERIOD+1,w
  1901  073E  00F1               	movwf	PWM2_PeriodSet@periodCount+1
  1902  073F  0821               	movf	main@PERIOD,w
  1903  0740  00F0               	movwf	PWM2_PeriodSet@periodCount
  1904  0741  265C               	fcall	_PWM2_PeriodSet
  1905                           
  1906                           ;main.c: 69:     PWM2_DutyCycleSet(LED2);
  1907  0742  0020               	movlb	0	; select bank0
  1908  0743  0826               	movf	main@LED2+1,w
  1909  0744  00F1               	movwf	PWM2_DutyCycleSet@dutyCycleCount+1
  1910  0745  0825               	movf	main@LED2,w
  1911  0746  00F0               	movwf	PWM2_DutyCycleSet@dutyCycleCount
  1912  0747  2656               	fcall	_PWM2_DutyCycleSet
  1913                           
  1914                           ;main.c: 71:     PWM3_PhaseSet(0);
  1915  0748  3000               	movlw	0
  1916  0749  00F0               	movwf	PWM3_PhaseSet@phaseCount
  1917  074A  00F1               	movwf	PWM3_PhaseSet@phaseCount+1
  1918  074B  2674               	fcall	_PWM3_PhaseSet
  1919                           
  1920                           ;main.c: 72:     PWM3_PeriodSet(PERIOD);
  1921  074C  0020               	movlb	0	; select bank0
  1922  074D  0822               	movf	main@PERIOD+1,w
  1923  074E  00F1               	movwf	PWM3_PeriodSet@periodCount+1
  1924  074F  0821               	movf	main@PERIOD,w
  1925  0750  00F0               	movwf	PWM3_PeriodSet@periodCount
  1926  0751  266E               	fcall	_PWM3_PeriodSet
  1927                           
  1928                           ;main.c: 73:     PWM3_DutyCycleSet(LED3);
  1929  0752  0020               	movlb	0	; select bank0
  1930  0753  0828               	movf	main@LED3+1,w
  1931  0754  00F1               	movwf	PWM3_DutyCycleSet@dutyCycleCount+1
  1932  0755  0827               	movf	main@LED3,w
  1933  0756  00F0               	movwf	PWM3_DutyCycleSet@dutyCycleCount
  1934  0757  2668               	fcall	_PWM3_DutyCycleSet
  1935                           
  1936                           ;main.c: 90:     PWM1_Start();
  1937  0758  2624               	fcall	_PWM1_Start
  1938                           
  1939                           ;main.c: 91:     PWM2_Start();
  1940  0759  262D               	fcall	_PWM2_Start
  1941                           
  1942                           ;main.c: 92:     PWM3_Start();
  1943  075A  2636               	fcall	_PWM3_Start
  1944  075B                     l1450:	
  1945                           ;main.c: 94:     while (1)
  1946                           
  1947                           
  1948                           ;main.c: 95:     {;main.c: 97:         uint16_t adc_result = 0;
  1949  075B  0020               	movlb	0	; select bank0
  1950  075C  01A9               	clrf	main@adc_result
  1951  075D  01AA               	clrf	main@adc_result+1
  1952                           
  1953                           ;main.c: 98:         adc_result = ADC1_GetConversion(channel_AN0);
  1954  075E  3000               	movlw	0
  1955  075F  26C1               	fcall	_ADC1_GetConversion
  1956  0760  0871               	movf	?_ADC1_GetConversion+1,w
  1957  0761  0020               	movlb	0	; select bank0
  1958  0762  00AA               	movwf	main@adc_result+1
  1959  0763  0870               	movf	?_ADC1_GetConversion,w
  1960  0764  00A9               	movwf	main@adc_result
  1961                           
  1962                           ;main.c: 101:         RCSTAbits.SPEN = 1;
  1963  0765  0023               	movlb	3	; select bank3
  1964  0766  179D               	bsf	29,7	;volatile
  1965                           
  1966                           ;main.c: 102:         _delay((unsigned long)((1)*(500000/4000.0)));
  1967  0767  3029               	movlw	41
  1968  0768                     u357:	
  1969  0768  0B89               	decfsz	9,f
  1970  0769  2F68               	goto	u357
  1971  076A  3200               	nop2
  1972                           
  1973                           ;main.c: 104:         EUSART_Write((uint8_t)(adc_result & 0xFF));
  1974  076B  0020               	movlb	0	; select bank0
  1975  076C  0829               	movf	main@adc_result,w
  1976  076D  2681               	fcall	_EUSART_Write
  1977                           
  1978                           ;main.c: 105:         EUSART_Write((uint8_t)((adc_result >> 8) & 0xFF));
  1979  076E  0020               	movlb	0	; select bank0
  1980  076F  082A               	movf	main@adc_result+1,w
  1981  0770  2681               	fcall	_EUSART_Write
  1982  0771                     l1458:	
  1983                           ;main.c: 107:         while(!EUSART_is_tx_done());
  1984                           
  1985  0771  263C               	fcall	_EUSART_is_tx_done
  1986  0772  3A00               	xorlw	0
  1987  0773  1903               	skipnz
  1988  0774  2F71               	goto	l1458
  1989                           
  1990                           ;main.c: 109:         uint8_t receive = EUSART_Read();
  1991  0775  269A               	fcall	_EUSART_Read
  1992  0776  00F4               	movwf	??_main
  1993  0777  0874               	movf	??_main,w
  1994  0778  0020               	movlb	0	; select bank0
  1995  0779  00A0               	movwf	main@receive
  1996                           
  1997                           ;main.c: 110:         if(receive == (adc_result & 0xFF))
  1998  077A  30FF               	movlw	255
  1999  077B  0529               	andwf	main@adc_result,w
  2000  077C  00F4               	movwf	??_main
  2001  077D  3000               	movlw	0
  2002  077E  052A               	andwf	main@adc_result+1,w
  2003  077F  00F5               	movwf	??_main+1
  2004  0780  0820               	movf	main@receive,w
  2005  0781  00F6               	movwf	??_main+2
  2006  0782  01F7               	clrf	??_main+3
  2007  0783  0875               	movf	??_main+1,w
  2008  0784  0677               	xorwf	??_main+3,w
  2009  0785  1D03               	skipz
  2010  0786  2F89               	goto	u245
  2011  0787  0874               	movf	??_main,w
  2012  0788  0676               	xorwf	??_main+2,w
  2013  0789                     u245:	
  2014  0789  1D03               	skipz
  2015  078A  2F8D               	goto	l1466
  2016                           
  2017                           ;main.c: 111:         {;main.c: 112:             EUSART_Write(0x55);
  2018  078B  3055               	movlw	85
  2019  078C  2681               	fcall	_EUSART_Write
  2020  078D                     l1466:	
  2021                           ;main.c: 114:         while(!EUSART_is_tx_done());
  2022                           
  2023                           ;main.c: 113:         }
  2024                           
  2025  078D  263C               	fcall	_EUSART_is_tx_done
  2026  078E  3A00               	xorlw	0
  2027  078F  1903               	skipnz
  2028  0790  2F8D               	goto	l1466
  2029                           
  2030                           ;main.c: 115:         RCSTAbits.SPEN = 0;
  2031  0791  0023               	movlb	3	; select bank3
  2032  0792  139D               	bcf	29,7	;volatile
  2033                           
  2034                           ;main.c: 118:         if(adc_result >= 0x99C0-10 && adc_result <= 0x99C0+10)LED1+=5;
  2035  0793  3099               	movlw	153
  2036  0794  0020               	movlb	0	; select bank0
  2037  0795  022A               	subwf	main@adc_result+1,w
  2038  0796  30B6               	movlw	182
  2039  0797  1903               	skipnz
  2040  0798  0229               	subwf	main@adc_result,w
  2041  0799  1C03               	skipc
  2042  079A  2FA6               	goto	l447
  2043  079B  3099               	movlw	153
  2044  079C  022A               	subwf	main@adc_result+1,w
  2045  079D  30CB               	movlw	203
  2046  079E  1903               	skipnz
  2047  079F  0229               	subwf	main@adc_result,w
  2048  07A0  1803               	skipnc
  2049  07A1  2FA6               	goto	l447
  2050  07A2  3005               	movlw	5
  2051  07A3  07A3               	addwf	main@LED1,f
  2052  07A4  3000               	movlw	0
  2053  07A5  3DA4               	addwfc	main@LED1+1,f
  2054  07A6                     l447:	
  2055                           
  2056                           ;main.c: 119:         if(adc_result >= 0x8DC0-10 && adc_result <= 0x8DC0+10)LED2+=5;
  2057  07A6  308D               	movlw	141
  2058  07A7  022A               	subwf	main@adc_result+1,w
  2059  07A8  30B6               	movlw	182
  2060  07A9  1903               	skipnz
  2061  07AA  0229               	subwf	main@adc_result,w
  2062  07AB  1C03               	skipc
  2063  07AC  2FB8               	goto	l448
  2064  07AD  308D               	movlw	141
  2065  07AE  022A               	subwf	main@adc_result+1,w
  2066  07AF  30CB               	movlw	203
  2067  07B0  1903               	skipnz
  2068  07B1  0229               	subwf	main@adc_result,w
  2069  07B2  1803               	skipnc
  2070  07B3  2FB8               	goto	l448
  2071  07B4  3005               	movlw	5
  2072  07B5  07A5               	addwf	main@LED2,f
  2073  07B6  3000               	movlw	0
  2074  07B7  3DA6               	addwfc	main@LED2+1,f
  2075  07B8                     l448:	
  2076                           
  2077                           ;main.c: 120:         if(adc_result >= 0x7A40-10 && adc_result <= 0x7A40+10)LED3+=5;
  2078  07B8  307A               	movlw	122
  2079  07B9  022A               	subwf	main@adc_result+1,w
  2080  07BA  3036               	movlw	54
  2081  07BB  1903               	skipnz
  2082  07BC  0229               	subwf	main@adc_result,w
  2083  07BD  1C03               	skipc
  2084  07BE  2FCA               	goto	l449
  2085  07BF  307A               	movlw	122
  2086  07C0  022A               	subwf	main@adc_result+1,w
  2087  07C1  304B               	movlw	75
  2088  07C2  1903               	skipnz
  2089  07C3  0229               	subwf	main@adc_result,w
  2090  07C4  1803               	skipnc
  2091  07C5  2FCA               	goto	l449
  2092  07C6  3005               	movlw	5
  2093  07C7  07A7               	addwf	main@LED3,f
  2094  07C8  3000               	movlw	0
  2095  07C9  3DA8               	addwfc	main@LED3+1,f
  2096  07CA                     l449:	
  2097                           
  2098                           ;main.c: 122:         if(LED1 > 300) LED1 = 0;
  2099  07CA  3001               	movlw	1
  2100  07CB  0224               	subwf	main@LED1+1,w
  2101  07CC  302D               	movlw	45
  2102  07CD  1903               	skipnz
  2103  07CE  0223               	subwf	main@LED1,w
  2104  07CF  1C03               	skipc
  2105  07D0  2FD3               	goto	l1484
  2106  07D1  01A3               	clrf	main@LED1
  2107  07D2  01A4               	clrf	main@LED1+1
  2108  07D3                     l1484:	
  2109                           
  2110                           ;main.c: 123:         if(LED2 > 300) LED2 = 0;
  2111  07D3  3001               	movlw	1
  2112  07D4  0226               	subwf	main@LED2+1,w
  2113  07D5  302D               	movlw	45
  2114  07D6  1903               	skipnz
  2115  07D7  0225               	subwf	main@LED2,w
  2116  07D8  1C03               	skipc
  2117  07D9  2FDC               	goto	l1488
  2118  07DA  01A5               	clrf	main@LED2
  2119  07DB  01A6               	clrf	main@LED2+1
  2120  07DC                     l1488:	
  2121                           
  2122                           ;main.c: 124:         if(LED3 > 300) LED3 = 0;
  2123  07DC  3001               	movlw	1
  2124  07DD  0228               	subwf	main@LED3+1,w
  2125  07DE  302D               	movlw	45
  2126  07DF  1903               	skipnz
  2127  07E0  0227               	subwf	main@LED3,w
  2128  07E1  1C03               	skipc
  2129  07E2  2FE5               	goto	l1492
  2130  07E3  01A7               	clrf	main@LED3
  2131  07E4  01A8               	clrf	main@LED3+1
  2132  07E5                     l1492:	
  2133                           
  2134                           ;main.c: 126:         PWM1_DutyCycleSet(LED1);
  2135  07E5  0824               	movf	main@LED1+1,w
  2136  07E6  00F1               	movwf	PWM1_DutyCycleSet@dutyCycleCount+1
  2137  07E7  0823               	movf	main@LED1,w
  2138  07E8  00F0               	movwf	PWM1_DutyCycleSet@dutyCycleCount
  2139  07E9  2644               	fcall	_PWM1_DutyCycleSet
  2140                           
  2141                           ;main.c: 127:         PWM1_LoadBufferSet();
  2142  07EA  2621               	fcall	_PWM1_LoadBufferSet
  2143                           
  2144                           ;main.c: 128:         PWM2_DutyCycleSet(LED2);
  2145  07EB  0020               	movlb	0	; select bank0
  2146  07EC  0826               	movf	main@LED2+1,w
  2147  07ED  00F1               	movwf	PWM2_DutyCycleSet@dutyCycleCount+1
  2148  07EE  0825               	movf	main@LED2,w
  2149  07EF  00F0               	movwf	PWM2_DutyCycleSet@dutyCycleCount
  2150  07F0  2656               	fcall	_PWM2_DutyCycleSet
  2151                           
  2152                           ;main.c: 129:         PWM2_LoadBufferSet();
  2153  07F1  262A               	fcall	_PWM2_LoadBufferSet
  2154                           
  2155                           ;main.c: 130:         PWM3_DutyCycleSet(LED3);
  2156  07F2  0020               	movlb	0	; select bank0
  2157  07F3  0828               	movf	main@LED3+1,w
  2158  07F4  00F1               	movwf	PWM3_DutyCycleSet@dutyCycleCount+1
  2159  07F5  0827               	movf	main@LED3,w
  2160  07F6  00F0               	movwf	PWM3_DutyCycleSet@dutyCycleCount
  2161  07F7  2668               	fcall	_PWM3_DutyCycleSet
  2162                           
  2163                           ;main.c: 131:         PWM3_LoadBufferSet();
  2164  07F8  2633               	fcall	_PWM3_LoadBufferSet
  2165                           
  2166                           ;main.c: 134:         _delay((unsigned long)((10)*(500000/4000.0)));
  2167  07F9  30FA               	movlw	250
  2168  07FA                     u367:	
  2169  07FA  3200               	nop2
  2170  07FB  0B89               	decfsz	9,f
  2171  07FC  2FFA               	goto	u367
  2172                           
  2173                           ;main.c: 135:     }
  2174  07FD  2F5B               	goto	l1450
  2175  07FE                     __end_of_main:	
  2176                           
  2177                           	psect	text1
  2178  0691                     __ptext1:	
  2179 ;; *************** function _SYSTEM_Initialize *****************
  2180 ;; Defined at:
  2181 ;;		line 50 in file "mcc_generated_files/mcc.c"
  2182 ;; Parameters:    Size  Location     Type
  2183 ;;		None
  2184 ;; Auto vars:     Size  Location     Type
  2185 ;;		None
  2186 ;; Return value:  Size  Location     Type
  2187 ;;                  1    wreg      void 
  2188 ;; Registers used:
  2189 ;;		wreg, status,2, status,0, pclath, cstack
  2190 ;; Tracked objects:
  2191 ;;		On entry : 0/0
  2192 ;;		On exit  : 0/0
  2193 ;;		Unchanged: 0/0
  2194 ;; Data sizes:     COMMON   BANK0   BANK1   BANK2
  2195 ;;      Params:         0       0       0       0
  2196 ;;      Locals:         0       0       0       0
  2197 ;;      Temps:          0       0       0       0
  2198 ;;      Totals:         0       0       0       0
  2199 ;;Total ram usage:        0 bytes
  2200 ;; Hardware stack levels used:    1
  2201 ;; Hardware stack levels required when called:    1
  2202 ;; This function calls:
  2203 ;;		_ADC1_Initialize
  2204 ;;		_EUSART_Initialize
  2205 ;;		_OSCILLATOR_Initialize
  2206 ;;		_PIN_MANAGER_Initialize
  2207 ;;		_PWM1_Initialize
  2208 ;;		_PWM2_Initialize
  2209 ;;		_PWM3_Initialize
  2210 ;;		_WDT_Initialize
  2211 ;; This function is called by:
  2212 ;;		_main
  2213 ;; This function uses a non-reentrant model
  2214 ;;
  2215                           
  2216                           
  2217                           ;psect for function _SYSTEM_Initialize
  2218  0691                     _SYSTEM_Initialize:	
  2219                           
  2220                           ;mcc_generated_files/mcc.c: 53:     PIN_MANAGER_Initialize();
  2221                           
  2222                           ;incstack = 0
  2223                           ; Regs used in _SYSTEM_Initialize: [wreg+status,2+status,0+pclath+cstack]
  2224  0691  26AF               	fcall	_PIN_MANAGER_Initialize
  2225                           
  2226                           ;mcc_generated_files/mcc.c: 54:     OSCILLATOR_Initialize();
  2227  0692  267A               	fcall	_OSCILLATOR_Initialize
  2228                           
  2229                           ;mcc_generated_files/mcc.c: 55:     WDT_Initialize();
  2230  0693  2640               	fcall	_WDT_Initialize
  2231                           
  2232                           ;mcc_generated_files/mcc.c: 56:     PWM1_Initialize();
  2233  0694  26D6               	fcall	_PWM1_Initialize
  2234                           
  2235                           ;mcc_generated_files/mcc.c: 57:     PWM2_Initialize();
  2236  0695  26EB               	fcall	_PWM2_Initialize
  2237                           
  2238                           ;mcc_generated_files/mcc.c: 58:     ADC1_Initialize();
  2239  0696  2689               	fcall	_ADC1_Initialize
  2240                           
  2241                           ;mcc_generated_files/mcc.c: 59:     PWM3_Initialize();
  2242  0697  2700               	fcall	_PWM3_Initialize
  2243                           
  2244                           ;mcc_generated_files/mcc.c: 60:     EUSART_Initialize();
  2245  0698  26A4               	fcall	_EUSART_Initialize
  2246  0699  0008               	return
  2247  069A                     __end_of_SYSTEM_Initialize:	
  2248                           
  2249                           	psect	text2
  2250  0640                     __ptext2:	
  2251 ;; *************** function _WDT_Initialize *****************
  2252 ;; Defined at:
  2253 ;;		line 73 in file "mcc_generated_files/mcc.c"
  2254 ;; Parameters:    Size  Location     Type
  2255 ;;		None
  2256 ;; Auto vars:     Size  Location     Type
  2257 ;;		None
  2258 ;; Return value:  Size  Location     Type
  2259 ;;                  1    wreg      void 
  2260 ;; Registers used:
  2261 ;;		wreg
  2262 ;; Tracked objects:
  2263 ;;		On entry : 0/0
  2264 ;;		On exit  : 0/0
  2265 ;;		Unchanged: 0/0
  2266 ;; Data sizes:     COMMON   BANK0   BANK1   BANK2
  2267 ;;      Params:         0       0       0       0
  2268 ;;      Locals:         0       0       0       0
  2269 ;;      Temps:          0       0       0       0
  2270 ;;      Totals:         0       0       0       0
  2271 ;;Total ram usage:        0 bytes
  2272 ;; Hardware stack levels used:    1
  2273 ;; This function calls:
  2274 ;;		Nothing
  2275 ;; This function is called by:
  2276 ;;		_SYSTEM_Initialize
  2277 ;; This function uses a non-reentrant model
  2278 ;;
  2279                           
  2280                           
  2281                           ;psect for function _WDT_Initialize
  2282  0640                     _WDT_Initialize:	
  2283                           
  2284                           ;mcc_generated_files/mcc.c: 76:     WDTCON = 0x16;
  2285                           
  2286                           ;incstack = 0
  2287                           ; Regs used in _WDT_Initialize: [wreg]
  2288  0640  3016               	movlw	22
  2289  0641  0021               	movlb	1	; select bank1
  2290  0642  0097               	movwf	23	;volatile
  2291  0643  0008               	return
  2292  0644                     __end_of_WDT_Initialize:	
  2293                           
  2294                           	psect	text3
  2295  0700                     __ptext3:	
  2296 ;; *************** function _PWM3_Initialize *****************
  2297 ;; Defined at:
  2298 ;;		line 58 in file "mcc_generated_files/pwm3.c"
  2299 ;; Parameters:    Size  Location     Type
  2300 ;;		None
  2301 ;; Auto vars:     Size  Location     Type
  2302 ;;		None
  2303 ;; Return value:  Size  Location     Type
  2304 ;;                  1    wreg      void 
  2305 ;; Registers used:
  2306 ;;		wreg, status,2
  2307 ;; Tracked objects:
  2308 ;;		On entry : 0/0
  2309 ;;		On exit  : 0/0
  2310 ;;		Unchanged: 0/0
  2311 ;; Data sizes:     COMMON   BANK0   BANK1   BANK2
  2312 ;;      Params:         0       0       0       0
  2313 ;;      Locals:         0       0       0       0
  2314 ;;      Temps:          0       0       0       0
  2315 ;;      Totals:         0       0       0       0
  2316 ;;Total ram usage:        0 bytes
  2317 ;; Hardware stack levels used:    1
  2318 ;; This function calls:
  2319 ;;		Nothing
  2320 ;; This function is called by:
  2321 ;;		_SYSTEM_Initialize
  2322 ;; This function uses a non-reentrant model
  2323 ;;
  2324                           
  2325                           
  2326                           ;psect for function _PWM3_Initialize
  2327  0700                     _PWM3_Initialize:	
  2328                           
  2329                           ;mcc_generated_files/pwm3.c: 63:     PWM3INTE = 0x00;
  2330                           
  2331                           ;incstack = 0
  2332                           ; Regs used in _PWM3_Initialize: [wreg+status,2]
  2333  0700  003B               	movlb	27	; select bank27
  2334  0701  01BC               	clrf	60	;volatile
  2335                           
  2336                           ;mcc_generated_files/pwm3.c: 66:     PWM3INTF = 0x00;
  2337  0702  01BD               	clrf	61	;volatile
  2338                           
  2339                           ;mcc_generated_files/pwm3.c: 69:     PWM3CLKCON = 0x00;
  2340  0703  01BE               	clrf	62	;volatile
  2341                           
  2342                           ;mcc_generated_files/pwm3.c: 72:     PWM3LDCON = 0x00;
  2343  0704  01BF               	clrf	63	;volatile
  2344                           
  2345                           ;mcc_generated_files/pwm3.c: 75:     PWM3OFCON = 0x00;
  2346  0705  01C0               	clrf	64	;volatile
  2347                           
  2348                           ;mcc_generated_files/pwm3.c: 78:     PWM3PHH = 0x00;
  2349  0706  01B2               	clrf	50	;volatile
  2350                           
  2351                           ;mcc_generated_files/pwm3.c: 81:     PWM3PHL = 0x00;
  2352  0707  01B1               	clrf	49	;volatile
  2353                           
  2354                           ;mcc_generated_files/pwm3.c: 84:     PWM3DCH = 0x00;
  2355  0708  01B4               	clrf	52	;volatile
  2356                           
  2357                           ;mcc_generated_files/pwm3.c: 87:     PWM3DCL = 0x00;
  2358  0709  01B3               	clrf	51	;volatile
  2359                           
  2360                           ;mcc_generated_files/pwm3.c: 90:     PWM3PRH = 0x00;
  2361  070A  01B6               	clrf	54	;volatile
  2362                           
  2363                           ;mcc_generated_files/pwm3.c: 93:     PWM3PRL = 0xFF;
  2364  070B  30FF               	movlw	255
  2365  070C  00B5               	movwf	53	;volatile
  2366                           
  2367                           ;mcc_generated_files/pwm3.c: 96:     PWM3OFH = 0x00;
  2368  070D  01B8               	clrf	56	;volatile
  2369                           
  2370                           ;mcc_generated_files/pwm3.c: 99:     PWM3OFL = 0x01;
  2371  070E  3001               	movlw	1
  2372  070F  00B7               	movwf	55	;volatile
  2373                           
  2374                           ;mcc_generated_files/pwm3.c: 102:     PWM3TMRH = 0x00;
  2375  0710  01BA               	clrf	58	;volatile
  2376                           
  2377                           ;mcc_generated_files/pwm3.c: 105:     PWM3TMRL = 0x00;
  2378  0711  01B9               	clrf	57	;volatile
  2379                           
  2380                           ;mcc_generated_files/pwm3.c: 108:     PWM3CON = 0xC0;
  2381  0712  30C0               	movlw	192
  2382  0713  00BB               	movwf	59	;volatile
  2383  0714  0008               	return
  2384  0715                     __end_of_PWM3_Initialize:	
  2385                           
  2386                           	psect	text4
  2387  06EB                     __ptext4:	
  2388 ;; *************** function _PWM2_Initialize *****************
  2389 ;; Defined at:
  2390 ;;		line 58 in file "mcc_generated_files/pwm2.c"
  2391 ;; Parameters:    Size  Location     Type
  2392 ;;		None
  2393 ;; Auto vars:     Size  Location     Type
  2394 ;;		None
  2395 ;; Return value:  Size  Location     Type
  2396 ;;                  1    wreg      void 
  2397 ;; Registers used:
  2398 ;;		wreg, status,2
  2399 ;; Tracked objects:
  2400 ;;		On entry : 0/0
  2401 ;;		On exit  : 0/0
  2402 ;;		Unchanged: 0/0
  2403 ;; Data sizes:     COMMON   BANK0   BANK1   BANK2
  2404 ;;      Params:         0       0       0       0
  2405 ;;      Locals:         0       0       0       0
  2406 ;;      Temps:          0       0       0       0
  2407 ;;      Totals:         0       0       0       0
  2408 ;;Total ram usage:        0 bytes
  2409 ;; Hardware stack levels used:    1
  2410 ;; This function calls:
  2411 ;;		Nothing
  2412 ;; This function is called by:
  2413 ;;		_SYSTEM_Initialize
  2414 ;; This function uses a non-reentrant model
  2415 ;;
  2416                           
  2417                           
  2418                           ;psect for function _PWM2_Initialize
  2419  06EB                     _PWM2_Initialize:	
  2420                           
  2421                           ;mcc_generated_files/pwm2.c: 63:     PWM2INTE = 0x00;
  2422                           
  2423                           ;incstack = 0
  2424                           ; Regs used in _PWM2_Initialize: [wreg+status,2]
  2425  06EB  003B               	movlb	27	; select bank27
  2426  06EC  01AC               	clrf	44	;volatile
  2427                           
  2428                           ;mcc_generated_files/pwm2.c: 66:     PWM2INTF = 0x00;
  2429  06ED  01AD               	clrf	45	;volatile
  2430                           
  2431                           ;mcc_generated_files/pwm2.c: 69:     PWM2CLKCON = 0x00;
  2432  06EE  01AE               	clrf	46	;volatile
  2433                           
  2434                           ;mcc_generated_files/pwm2.c: 72:     PWM2LDCON = 0x00;
  2435  06EF  01AF               	clrf	47	;volatile
  2436                           
  2437                           ;mcc_generated_files/pwm2.c: 75:     PWM2OFCON = 0x00;
  2438  06F0  01B0               	clrf	48	;volatile
  2439                           
  2440                           ;mcc_generated_files/pwm2.c: 78:     PWM2PHH = 0x00;
  2441  06F1  01A2               	clrf	34	;volatile
  2442                           
  2443                           ;mcc_generated_files/pwm2.c: 81:     PWM2PHL = 0x00;
  2444  06F2  01A1               	clrf	33	;volatile
  2445                           
  2446                           ;mcc_generated_files/pwm2.c: 84:     PWM2DCH = 0x00;
  2447  06F3  01A4               	clrf	36	;volatile
  2448                           
  2449                           ;mcc_generated_files/pwm2.c: 87:     PWM2DCL = 0x00;
  2450  06F4  01A3               	clrf	35	;volatile
  2451                           
  2452                           ;mcc_generated_files/pwm2.c: 90:     PWM2PRH = 0x00;
  2453  06F5  01A6               	clrf	38	;volatile
  2454                           
  2455                           ;mcc_generated_files/pwm2.c: 93:     PWM2PRL = 0xFF;
  2456  06F6  30FF               	movlw	255
  2457  06F7  00A5               	movwf	37	;volatile
  2458                           
  2459                           ;mcc_generated_files/pwm2.c: 96:     PWM2OFH = 0x00;
  2460  06F8  01A8               	clrf	40	;volatile
  2461                           
  2462                           ;mcc_generated_files/pwm2.c: 99:     PWM2OFL = 0x01;
  2463  06F9  3001               	movlw	1
  2464  06FA  00A7               	movwf	39	;volatile
  2465                           
  2466                           ;mcc_generated_files/pwm2.c: 102:     PWM2TMRH = 0x00;
  2467  06FB  01AA               	clrf	42	;volatile
  2468                           
  2469                           ;mcc_generated_files/pwm2.c: 105:     PWM2TMRL = 0x00;
  2470  06FC  01A9               	clrf	41	;volatile
  2471                           
  2472                           ;mcc_generated_files/pwm2.c: 108:     PWM2CON = 0xC0;
  2473  06FD  30C0               	movlw	192
  2474  06FE  00AB               	movwf	43	;volatile
  2475  06FF  0008               	return
  2476  0700                     __end_of_PWM2_Initialize:	
  2477                           
  2478                           	psect	text5
  2479  06D6                     __ptext5:	
  2480 ;; *************** function _PWM1_Initialize *****************
  2481 ;; Defined at:
  2482 ;;		line 58 in file "mcc_generated_files/pwm1.c"
  2483 ;; Parameters:    Size  Location     Type
  2484 ;;		None
  2485 ;; Auto vars:     Size  Location     Type
  2486 ;;		None
  2487 ;; Return value:  Size  Location     Type
  2488 ;;                  1    wreg      void 
  2489 ;; Registers used:
  2490 ;;		wreg, status,2
  2491 ;; Tracked objects:
  2492 ;;		On entry : 0/0
  2493 ;;		On exit  : 0/0
  2494 ;;		Unchanged: 0/0
  2495 ;; Data sizes:     COMMON   BANK0   BANK1   BANK2
  2496 ;;      Params:         0       0       0       0
  2497 ;;      Locals:         0       0       0       0
  2498 ;;      Temps:          0       0       0       0
  2499 ;;      Totals:         0       0       0       0
  2500 ;;Total ram usage:        0 bytes
  2501 ;; Hardware stack levels used:    1
  2502 ;; This function calls:
  2503 ;;		Nothing
  2504 ;; This function is called by:
  2505 ;;		_SYSTEM_Initialize
  2506 ;; This function uses a non-reentrant model
  2507 ;;
  2508                           
  2509                           
  2510                           ;psect for function _PWM1_Initialize
  2511  06D6                     _PWM1_Initialize:	
  2512                           
  2513                           ;mcc_generated_files/pwm1.c: 63:     PWM1INTE = 0x00;
  2514                           
  2515                           ;incstack = 0
  2516                           ; Regs used in _PWM1_Initialize: [wreg+status,2]
  2517  06D6  003B               	movlb	27	; select bank27
  2518  06D7  019C               	clrf	28	;volatile
  2519                           
  2520                           ;mcc_generated_files/pwm1.c: 66:     PWM1INTF = 0x00;
  2521  06D8  019D               	clrf	29	;volatile
  2522                           
  2523                           ;mcc_generated_files/pwm1.c: 69:     PWM1CLKCON = 0x00;
  2524  06D9  019E               	clrf	30	;volatile
  2525                           
  2526                           ;mcc_generated_files/pwm1.c: 72:     PWM1LDCON = 0x00;
  2527  06DA  019F               	clrf	31	;volatile
  2528                           
  2529                           ;mcc_generated_files/pwm1.c: 75:     PWM1OFCON = 0x00;
  2530  06DB  01A0               	clrf	32	;volatile
  2531                           
  2532                           ;mcc_generated_files/pwm1.c: 78:     PWM1PHH = 0x00;
  2533  06DC  0192               	clrf	18	;volatile
  2534                           
  2535                           ;mcc_generated_files/pwm1.c: 81:     PWM1PHL = 0x00;
  2536  06DD  0191               	clrf	17	;volatile
  2537                           
  2538                           ;mcc_generated_files/pwm1.c: 84:     PWM1DCH = 0x00;
  2539  06DE  0194               	clrf	20	;volatile
  2540                           
  2541                           ;mcc_generated_files/pwm1.c: 87:     PWM1DCL = 0x00;
  2542  06DF  0193               	clrf	19	;volatile
  2543                           
  2544                           ;mcc_generated_files/pwm1.c: 90:     PWM1PRH = 0x00;
  2545  06E0  0196               	clrf	22	;volatile
  2546                           
  2547                           ;mcc_generated_files/pwm1.c: 93:     PWM1PRL = 0xFF;
  2548  06E1  30FF               	movlw	255
  2549  06E2  0095               	movwf	21	;volatile
  2550                           
  2551                           ;mcc_generated_files/pwm1.c: 96:     PWM1OFH = 0x00;
  2552  06E3  0198               	clrf	24	;volatile
  2553                           
  2554                           ;mcc_generated_files/pwm1.c: 99:     PWM1OFL = 0x01;
  2555  06E4  3001               	movlw	1
  2556  06E5  0097               	movwf	23	;volatile
  2557                           
  2558                           ;mcc_generated_files/pwm1.c: 102:     PWM1TMRH = 0x00;
  2559  06E6  019A               	clrf	26	;volatile
  2560                           
  2561                           ;mcc_generated_files/pwm1.c: 105:     PWM1TMRL = 0x00;
  2562  06E7  0199               	clrf	25	;volatile
  2563                           
  2564                           ;mcc_generated_files/pwm1.c: 108:     PWM1CON = 0xC0;
  2565  06E8  30C0               	movlw	192
  2566  06E9  009B               	movwf	27	;volatile
  2567  06EA  0008               	return
  2568  06EB                     __end_of_PWM1_Initialize:	
  2569                           
  2570                           	psect	text6
  2571  06AF                     __ptext6:	
  2572 ;; *************** function _PIN_MANAGER_Initialize *****************
  2573 ;; Defined at:
  2574 ;;		line 57 in file "mcc_generated_files/pin_manager.c"
  2575 ;; Parameters:    Size  Location     Type
  2576 ;;		None
  2577 ;; Auto vars:     Size  Location     Type
  2578 ;;		None
  2579 ;; Return value:  Size  Location     Type
  2580 ;;                  1    wreg      void 
  2581 ;; Registers used:
  2582 ;;		wreg, status,2
  2583 ;; Tracked objects:
  2584 ;;		On entry : 0/0
  2585 ;;		On exit  : 0/0
  2586 ;;		Unchanged: 0/0
  2587 ;; Data sizes:     COMMON   BANK0   BANK1   BANK2
  2588 ;;      Params:         0       0       0       0
  2589 ;;      Locals:         0       0       0       0
  2590 ;;      Temps:          0       0       0       0
  2591 ;;      Totals:         0       0       0       0
  2592 ;;Total ram usage:        0 bytes
  2593 ;; Hardware stack levels used:    1
  2594 ;; This function calls:
  2595 ;;		Nothing
  2596 ;; This function is called by:
  2597 ;;		_SYSTEM_Initialize
  2598 ;; This function uses a non-reentrant model
  2599 ;;
  2600                           
  2601                           
  2602                           ;psect for function _PIN_MANAGER_Initialize
  2603  06AF                     _PIN_MANAGER_Initialize:	
  2604                           
  2605                           ;mcc_generated_files/pin_manager.c: 62:     LATA = 0x00;
  2606                           
  2607                           ;incstack = 0
  2608                           ; Regs used in _PIN_MANAGER_Initialize: [wreg+status,2]
  2609  06AF  0022               	movlb	2	; select bank2
  2610  06B0  018C               	clrf	12	;volatile
  2611                           
  2612                           ;mcc_generated_files/pin_manager.c: 67:     TRISA = 0x29;
  2613  06B1  3029               	movlw	41
  2614  06B2  0021               	movlb	1	; select bank1
  2615  06B3  008C               	movwf	12	;volatile
  2616                           
  2617                           ;mcc_generated_files/pin_manager.c: 72:     ANSELA = 0x05;
  2618  06B4  3005               	movlw	5
  2619  06B5  0023               	movlb	3	; select bank3
  2620  06B6  008C               	movwf	12	;volatile
  2621                           
  2622                           ;mcc_generated_files/pin_manager.c: 77:     WPUA = 0x00;
  2623  06B7  0024               	movlb	4	; select bank4
  2624  06B8  018C               	clrf	12	;volatile
  2625                           
  2626                           ;mcc_generated_files/pin_manager.c: 78:     OPTION_REGbits.nWPUEN = 1;
  2627  06B9  0021               	movlb	1	; select bank1
  2628  06BA  1795               	bsf	21,7	;volatile
  2629                           
  2630                           ;mcc_generated_files/pin_manager.c: 83:     ODCONA = 0x00;
  2631  06BB  0025               	movlb	5	; select bank5
  2632  06BC  018C               	clrf	12	;volatile
  2633                           
  2634                           ;mcc_generated_files/pin_manager.c: 88:     APFCON = 0x82;
  2635  06BD  3082               	movlw	130
  2636  06BE  0022               	movlb	2	; select bank2
  2637  06BF  009D               	movwf	29	;volatile
  2638  06C0  0008               	return
  2639  06C1                     __end_of_PIN_MANAGER_Initialize:	
  2640                           
  2641                           	psect	text7
  2642  067A                     __ptext7:	
  2643 ;; *************** function _OSCILLATOR_Initialize *****************
  2644 ;; Defined at:
  2645 ;;		line 63 in file "mcc_generated_files/mcc.c"
  2646 ;; Parameters:    Size  Location     Type
  2647 ;;		None
  2648 ;; Auto vars:     Size  Location     Type
  2649 ;;		None
  2650 ;; Return value:  Size  Location     Type
  2651 ;;                  1    wreg      void 
  2652 ;; Registers used:
  2653 ;;		wreg, status,2
  2654 ;; Tracked objects:
  2655 ;;		On entry : 0/0
  2656 ;;		On exit  : 0/0
  2657 ;;		Unchanged: 0/0
  2658 ;; Data sizes:     COMMON   BANK0   BANK1   BANK2
  2659 ;;      Params:         0       0       0       0
  2660 ;;      Locals:         0       0       0       0
  2661 ;;      Temps:          0       0       0       0
  2662 ;;      Totals:         0       0       0       0
  2663 ;;Total ram usage:        0 bytes
  2664 ;; Hardware stack levels used:    1
  2665 ;; This function calls:
  2666 ;;		Nothing
  2667 ;; This function is called by:
  2668 ;;		_SYSTEM_Initialize
  2669 ;; This function uses a non-reentrant model
  2670 ;;
  2671                           
  2672                           
  2673                           ;psect for function _OSCILLATOR_Initialize
  2674  067A                     _OSCILLATOR_Initialize:	
  2675                           
  2676                           ;mcc_generated_files/mcc.c: 66:     OSCCON = 0x38;
  2677                           
  2678                           ;incstack = 0
  2679                           ; Regs used in _OSCILLATOR_Initialize: [wreg+status,2]
  2680  067A  3038               	movlw	56
  2681  067B  0021               	movlb	1	; select bank1
  2682  067C  0099               	movwf	25	;volatile
  2683                           
  2684                           ;mcc_generated_files/mcc.c: 68:     OSCTUNE = 0x00;
  2685  067D  0198               	clrf	24	;volatile
  2686                           
  2687                           ;mcc_generated_files/mcc.c: 70:     BORCON = 0x00;
  2688  067E  0022               	movlb	2	; select bank2
  2689  067F  0196               	clrf	22	;volatile
  2690  0680  0008               	return
  2691  0681                     __end_of_OSCILLATOR_Initialize:	
  2692                           
  2693                           	psect	text8
  2694  06A4                     __ptext8:	
  2695 ;; *************** function _EUSART_Initialize *****************
  2696 ;; Defined at:
  2697 ;;		line 56 in file "mcc_generated_files/eusart.c"
  2698 ;; Parameters:    Size  Location     Type
  2699 ;;		None
  2700 ;; Auto vars:     Size  Location     Type
  2701 ;;		None
  2702 ;; Return value:  Size  Location     Type
  2703 ;;                  1    wreg      void 
  2704 ;; Registers used:
  2705 ;;		wreg, status,2
  2706 ;; Tracked objects:
  2707 ;;		On entry : 0/0
  2708 ;;		On exit  : 0/0
  2709 ;;		Unchanged: 0/0
  2710 ;; Data sizes:     COMMON   BANK0   BANK1   BANK2
  2711 ;;      Params:         0       0       0       0
  2712 ;;      Locals:         0       0       0       0
  2713 ;;      Temps:          0       0       0       0
  2714 ;;      Totals:         0       0       0       0
  2715 ;;Total ram usage:        0 bytes
  2716 ;; Hardware stack levels used:    1
  2717 ;; This function calls:
  2718 ;;		Nothing
  2719 ;; This function is called by:
  2720 ;;		_SYSTEM_Initialize
  2721 ;; This function uses a non-reentrant model
  2722 ;;
  2723                           
  2724                           
  2725                           ;psect for function _EUSART_Initialize
  2726  06A4                     _EUSART_Initialize:	
  2727                           
  2728                           ;mcc_generated_files/eusart.c: 61:     BAUDCON = 0x08;
  2729                           
  2730                           ;incstack = 0
  2731                           ; Regs used in _EUSART_Initialize: [wreg+status,2]
  2732  06A4  3008               	movlw	8
  2733  06A5  0023               	movlb	3	; select bank3
  2734  06A6  009F               	movwf	31	;volatile
  2735                           
  2736                           ;mcc_generated_files/eusart.c: 64:     RCSTA = 0x90;
  2737  06A7  3090               	movlw	144
  2738  06A8  009D               	movwf	29	;volatile
  2739                           
  2740                           ;mcc_generated_files/eusart.c: 67:     TXSTA = 0x24;
  2741  06A9  3024               	movlw	36
  2742  06AA  009E               	movwf	30	;volatile
  2743                           
  2744                           ;mcc_generated_files/eusart.c: 70:     SPBRGL = 0x0C;
  2745  06AB  300C               	movlw	12
  2746  06AC  009B               	movwf	27	;volatile
  2747                           
  2748                           ;mcc_generated_files/eusart.c: 73:     SPBRGH = 0x00;
  2749  06AD  019C               	clrf	28	;volatile
  2750  06AE  0008               	return
  2751  06AF                     __end_of_EUSART_Initialize:	
  2752                           
  2753                           	psect	text9
  2754  0689                     __ptext9:	
  2755 ;; *************** function _ADC1_Initialize *****************
  2756 ;; Defined at:
  2757 ;;		line 65 in file "mcc_generated_files/adc1.c"
  2758 ;; Parameters:    Size  Location     Type
  2759 ;;		None
  2760 ;; Auto vars:     Size  Location     Type
  2761 ;;		None
  2762 ;; Return value:  Size  Location     Type
  2763 ;;                  1    wreg      void 
  2764 ;; Registers used:
  2765 ;;		wreg, status,2
  2766 ;; Tracked objects:
  2767 ;;		On entry : 0/0
  2768 ;;		On exit  : 0/0
  2769 ;;		Unchanged: 0/0
  2770 ;; Data sizes:     COMMON   BANK0   BANK1   BANK2
  2771 ;;      Params:         0       0       0       0
  2772 ;;      Locals:         0       0       0       0
  2773 ;;      Temps:          0       0       0       0
  2774 ;;      Totals:         0       0       0       0
  2775 ;;Total ram usage:        0 bytes
  2776 ;; Hardware stack levels used:    1
  2777 ;; This function calls:
  2778 ;;		Nothing
  2779 ;; This function is called by:
  2780 ;;		_SYSTEM_Initialize
  2781 ;; This function uses a non-reentrant model
  2782 ;;
  2783                           
  2784                           
  2785                           ;psect for function _ADC1_Initialize
  2786  0689                     _ADC1_Initialize:	
  2787                           
  2788                           ;mcc_generated_files/adc1.c: 70:     ADCON0 = 0x01;
  2789                           
  2790                           ;incstack = 0
  2791                           ; Regs used in _ADC1_Initialize: [wreg+status,2]
  2792  0689  3001               	movlw	1
  2793  068A  0021               	movlb	1	; select bank1
  2794  068B  009D               	movwf	29	;volatile
  2795                           
  2796                           ;mcc_generated_files/adc1.c: 73:     ADCON1 = 0x00;
  2797  068C  019E               	clrf	30	;volatile
  2798                           
  2799                           ;mcc_generated_files/adc1.c: 76:     ADCON2 = 0x00;
  2800  068D  019F               	clrf	31	;volatile
  2801                           
  2802                           ;mcc_generated_files/adc1.c: 79:     ADRESL = 0x00;
  2803  068E  019B               	clrf	27	;volatile
  2804                           
  2805                           ;mcc_generated_files/adc1.c: 82:     ADRESH = 0x00;
  2806  068F  019C               	clrf	28	;volatile
  2807  0690  0008               	return
  2808  0691                     __end_of_ADC1_Initialize:	
  2809                           
  2810                           	psect	text10
  2811  0639                     __ptext10:	
  2812 ;; *************** function _PWM3_Stop *****************
  2813 ;; Defined at:
  2814 ;;		line 118 in file "mcc_generated_files/pwm3.c"
  2815 ;; Parameters:    Size  Location     Type
  2816 ;;		None
  2817 ;; Auto vars:     Size  Location     Type
  2818 ;;		None
  2819 ;; Return value:  Size  Location     Type
  2820 ;;                  1    wreg      void 
  2821 ;; Registers used:
  2822 ;;		None
  2823 ;; Tracked objects:
  2824 ;;		On entry : 0/0
  2825 ;;		On exit  : 0/0
  2826 ;;		Unchanged: 0/0
  2827 ;; Data sizes:     COMMON   BANK0   BANK1   BANK2
  2828 ;;      Params:         0       0       0       0
  2829 ;;      Locals:         0       0       0       0
  2830 ;;      Temps:          0       0       0       0
  2831 ;;      Totals:         0       0       0       0
  2832 ;;Total ram usage:        0 bytes
  2833 ;; Hardware stack levels used:    1
  2834 ;; This function calls:
  2835 ;;		Nothing
  2836 ;; This function is called by:
  2837 ;;		_main
  2838 ;; This function uses a non-reentrant model
  2839 ;;
  2840                           
  2841                           
  2842                           ;psect for function _PWM3_Stop
  2843  0639                     _PWM3_Stop:	
  2844                           
  2845                           ;mcc_generated_files/pwm3.c: 120:     PWM3CONbits.EN = 0;
  2846                           
  2847                           ;incstack = 0
  2848                           ; Regs used in _PWM3_Stop: []
  2849  0639  003B               	movlb	27	; select bank27
  2850  063A  13BB               	bcf	59,7	;volatile
  2851  063B  0008               	return
  2852  063C                     __end_of_PWM3_Stop:	
  2853                           
  2854                           	psect	text11
  2855  0636                     __ptext11:	
  2856 ;; *************** function _PWM3_Start *****************
  2857 ;; Defined at:
  2858 ;;		line 113 in file "mcc_generated_files/pwm3.c"
  2859 ;; Parameters:    Size  Location     Type
  2860 ;;		None
  2861 ;; Auto vars:     Size  Location     Type
  2862 ;;		None
  2863 ;; Return value:  Size  Location     Type
  2864 ;;                  1    wreg      void 
  2865 ;; Registers used:
  2866 ;;		None
  2867 ;; Tracked objects:
  2868 ;;		On entry : 0/0
  2869 ;;		On exit  : 0/0
  2870 ;;		Unchanged: 0/0
  2871 ;; Data sizes:     COMMON   BANK0   BANK1   BANK2
  2872 ;;      Params:         0       0       0       0
  2873 ;;      Locals:         0       0       0       0
  2874 ;;      Temps:          0       0       0       0
  2875 ;;      Totals:         0       0       0       0
  2876 ;;Total ram usage:        0 bytes
  2877 ;; Hardware stack levels used:    1
  2878 ;; This function calls:
  2879 ;;		Nothing
  2880 ;; This function is called by:
  2881 ;;		_main
  2882 ;; This function uses a non-reentrant model
  2883 ;;
  2884                           
  2885                           
  2886                           ;psect for function _PWM3_Start
  2887  0636                     _PWM3_Start:	
  2888                           
  2889                           ;mcc_generated_files/pwm3.c: 115:     PWM3CONbits.EN = 1;
  2890                           
  2891                           ;incstack = 0
  2892                           ; Regs used in _PWM3_Start: []
  2893  0636  003B               	movlb	27	; select bank27
  2894  0637  17BB               	bsf	59,7	;volatile
  2895  0638  0008               	return
  2896  0639                     __end_of_PWM3_Start:	
  2897                           
  2898                           	psect	text12
  2899  0674                     __ptext12:	
  2900 ;; *************** function _PWM3_PhaseSet *****************
  2901 ;; Defined at:
  2902 ;;		line 133 in file "mcc_generated_files/pwm3.c"
  2903 ;; Parameters:    Size  Location     Type
  2904 ;;  phaseCount      2    0[COMMON] unsigned short 
  2905 ;; Auto vars:     Size  Location     Type
  2906 ;;		None
  2907 ;; Return value:  Size  Location     Type
  2908 ;;                  1    wreg      void 
  2909 ;; Registers used:
  2910 ;;		wreg, status,2
  2911 ;; Tracked objects:
  2912 ;;		On entry : 0/0
  2913 ;;		On exit  : 0/0
  2914 ;;		Unchanged: 0/0
  2915 ;; Data sizes:     COMMON   BANK0   BANK1   BANK2
  2916 ;;      Params:         2       0       0       0
  2917 ;;      Locals:         0       0       0       0
  2918 ;;      Temps:          0       0       0       0
  2919 ;;      Totals:         2       0       0       0
  2920 ;;Total ram usage:        2 bytes
  2921 ;; Hardware stack levels used:    1
  2922 ;; This function calls:
  2923 ;;		Nothing
  2924 ;; This function is called by:
  2925 ;;		_main
  2926 ;; This function uses a non-reentrant model
  2927 ;;
  2928                           
  2929                           
  2930                           ;psect for function _PWM3_PhaseSet
  2931  0674                     _PWM3_PhaseSet:	
  2932                           
  2933                           ;mcc_generated_files/pwm3.c: 133: void PWM3_PhaseSet(uint16_t phaseCount);mcc_generated_
      +                          files/pwm3.c: 134: {;mcc_generated_files/pwm3.c: 135:     PWM3PHH = (phaseCount>>8);
  2934                           
  2935                           ;incstack = 0
  2936                           ; Regs used in _PWM3_PhaseSet: [wreg+status,2]
  2937  0674  0871               	movf	PWM3_PhaseSet@phaseCount+1,w
  2938  0675  003B               	movlb	27	; select bank27
  2939  0676  00B2               	movwf	50	;volatile
  2940                           
  2941                           ;mcc_generated_files/pwm3.c: 136:     PWM3PHL = (phaseCount);
  2942  0677  0870               	movf	PWM3_PhaseSet@phaseCount,w
  2943  0678  00B1               	movwf	49	;volatile
  2944  0679  0008               	return
  2945  067A                     __end_of_PWM3_PhaseSet:	
  2946                           
  2947                           	psect	text13
  2948  066E                     __ptext13:	
  2949 ;; *************** function _PWM3_PeriodSet *****************
  2950 ;; Defined at:
  2951 ;;		line 145 in file "mcc_generated_files/pwm3.c"
  2952 ;; Parameters:    Size  Location     Type
  2953 ;;  periodCount     2    0[COMMON] unsigned short 
  2954 ;; Auto vars:     Size  Location     Type
  2955 ;;		None
  2956 ;; Return value:  Size  Location     Type
  2957 ;;                  1    wreg      void 
  2958 ;; Registers used:
  2959 ;;		wreg, status,2
  2960 ;; Tracked objects:
  2961 ;;		On entry : 0/0
  2962 ;;		On exit  : 0/0
  2963 ;;		Unchanged: 0/0
  2964 ;; Data sizes:     COMMON   BANK0   BANK1   BANK2
  2965 ;;      Params:         2       0       0       0
  2966 ;;      Locals:         0       0       0       0
  2967 ;;      Temps:          0       0       0       0
  2968 ;;      Totals:         2       0       0       0
  2969 ;;Total ram usage:        2 bytes
  2970 ;; Hardware stack levels used:    1
  2971 ;; This function calls:
  2972 ;;		Nothing
  2973 ;; This function is called by:
  2974 ;;		_main
  2975 ;; This function uses a non-reentrant model
  2976 ;;
  2977                           
  2978                           
  2979                           ;psect for function _PWM3_PeriodSet
  2980  066E                     _PWM3_PeriodSet:	
  2981                           
  2982                           ;mcc_generated_files/pwm3.c: 145: void PWM3_PeriodSet(uint16_t periodCount);mcc_generate
      +                          d_files/pwm3.c: 146: {;mcc_generated_files/pwm3.c: 147:     PWM3PRH = (periodCount>>8);
  2983                           
  2984                           ;incstack = 0
  2985                           ; Regs used in _PWM3_PeriodSet: [wreg+status,2]
  2986  066E  0871               	movf	PWM3_PeriodSet@periodCount+1,w
  2987  066F  003B               	movlb	27	; select bank27
  2988  0670  00B6               	movwf	54	;volatile
  2989                           
  2990                           ;mcc_generated_files/pwm3.c: 148:     PWM3PRL = (periodCount);
  2991  0671  0870               	movf	PWM3_PeriodSet@periodCount,w
  2992  0672  00B5               	movwf	53	;volatile
  2993  0673  0008               	return
  2994  0674                     __end_of_PWM3_PeriodSet:	
  2995                           
  2996                           	psect	text14
  2997  0633                     __ptext14:	
  2998 ;; *************** function _PWM3_LoadBufferSet *****************
  2999 ;; Defined at:
  3000 ;;		line 128 in file "mcc_generated_files/pwm3.c"
  3001 ;; Parameters:    Size  Location     Type
  3002 ;;		None
  3003 ;; Auto vars:     Size  Location     Type
  3004 ;;		None
  3005 ;; Return value:  Size  Location     Type
  3006 ;;                  1    wreg      void 
  3007 ;; Registers used:
  3008 ;;		None
  3009 ;; Tracked objects:
  3010 ;;		On entry : 0/0
  3011 ;;		On exit  : 0/0
  3012 ;;		Unchanged: 0/0
  3013 ;; Data sizes:     COMMON   BANK0   BANK1   BANK2
  3014 ;;      Params:         0       0       0       0
  3015 ;;      Locals:         0       0       0       0
  3016 ;;      Temps:          0       0       0       0
  3017 ;;      Totals:         0       0       0       0
  3018 ;;Total ram usage:        0 bytes
  3019 ;; Hardware stack levels used:    1
  3020 ;; This function calls:
  3021 ;;		Nothing
  3022 ;; This function is called by:
  3023 ;;		_main
  3024 ;; This function uses a non-reentrant model
  3025 ;;
  3026                           
  3027                           
  3028                           ;psect for function _PWM3_LoadBufferSet
  3029  0633                     _PWM3_LoadBufferSet:	
  3030                           
  3031                           ;mcc_generated_files/pwm3.c: 130:     PWM3LDCONbits.LDA = 1;
  3032                           
  3033                           ;incstack = 0
  3034                           ; Regs used in _PWM3_LoadBufferSet: []
  3035  0633  003B               	movlb	27	; select bank27
  3036  0634  17BF               	bsf	63,7	;volatile
  3037  0635  0008               	return
  3038  0636                     __end_of_PWM3_LoadBufferSet:	
  3039                           
  3040                           	psect	text15
  3041  0668                     __ptext15:	
  3042 ;; *************** function _PWM3_DutyCycleSet *****************
  3043 ;; Defined at:
  3044 ;;		line 139 in file "mcc_generated_files/pwm3.c"
  3045 ;; Parameters:    Size  Location     Type
  3046 ;;  dutyCycleCou    2    0[COMMON] unsigned short 
  3047 ;; Auto vars:     Size  Location     Type
  3048 ;;		None
  3049 ;; Return value:  Size  Location     Type
  3050 ;;                  1    wreg      void 
  3051 ;; Registers used:
  3052 ;;		wreg, status,2
  3053 ;; Tracked objects:
  3054 ;;		On entry : 0/0
  3055 ;;		On exit  : 0/0
  3056 ;;		Unchanged: 0/0
  3057 ;; Data sizes:     COMMON   BANK0   BANK1   BANK2
  3058 ;;      Params:         2       0       0       0
  3059 ;;      Locals:         0       0       0       0
  3060 ;;      Temps:          0       0       0       0
  3061 ;;      Totals:         2       0       0       0
  3062 ;;Total ram usage:        2 bytes
  3063 ;; Hardware stack levels used:    1
  3064 ;; This function calls:
  3065 ;;		Nothing
  3066 ;; This function is called by:
  3067 ;;		_main
  3068 ;; This function uses a non-reentrant model
  3069 ;;
  3070                           
  3071                           
  3072                           ;psect for function _PWM3_DutyCycleSet
  3073  0668                     _PWM3_DutyCycleSet:	
  3074                           
  3075                           ;mcc_generated_files/pwm3.c: 139: void PWM3_DutyCycleSet(uint16_t dutyCycleCount);mcc_ge
      +                          nerated_files/pwm3.c: 140: {;mcc_generated_files/pwm3.c: 141:     PWM3DCH = (dutyCycleCo
      +                          unt>>8);
  3076                           
  3077                           ;incstack = 0
  3078                           ; Regs used in _PWM3_DutyCycleSet: [wreg+status,2]
  3079  0668  0871               	movf	PWM3_DutyCycleSet@dutyCycleCount+1,w
  3080  0669  003B               	movlb	27	; select bank27
  3081  066A  00B4               	movwf	52	;volatile
  3082                           
  3083                           ;mcc_generated_files/pwm3.c: 142:     PWM3DCL = (dutyCycleCount);
  3084  066B  0870               	movf	PWM3_DutyCycleSet@dutyCycleCount,w
  3085  066C  00B3               	movwf	51	;volatile
  3086  066D  0008               	return
  3087  066E                     __end_of_PWM3_DutyCycleSet:	
  3088                           
  3089                           	psect	text16
  3090  0630                     __ptext16:	
  3091 ;; *************** function _PWM2_Stop *****************
  3092 ;; Defined at:
  3093 ;;		line 118 in file "mcc_generated_files/pwm2.c"
  3094 ;; Parameters:    Size  Location     Type
  3095 ;;		None
  3096 ;; Auto vars:     Size  Location     Type
  3097 ;;		None
  3098 ;; Return value:  Size  Location     Type
  3099 ;;                  1    wreg      void 
  3100 ;; Registers used:
  3101 ;;		None
  3102 ;; Tracked objects:
  3103 ;;		On entry : 0/0
  3104 ;;		On exit  : 0/0
  3105 ;;		Unchanged: 0/0
  3106 ;; Data sizes:     COMMON   BANK0   BANK1   BANK2
  3107 ;;      Params:         0       0       0       0
  3108 ;;      Locals:         0       0       0       0
  3109 ;;      Temps:          0       0       0       0
  3110 ;;      Totals:         0       0       0       0
  3111 ;;Total ram usage:        0 bytes
  3112 ;; Hardware stack levels used:    1
  3113 ;; This function calls:
  3114 ;;		Nothing
  3115 ;; This function is called by:
  3116 ;;		_main
  3117 ;; This function uses a non-reentrant model
  3118 ;;
  3119                           
  3120                           
  3121                           ;psect for function _PWM2_Stop
  3122  0630                     _PWM2_Stop:	
  3123                           
  3124                           ;mcc_generated_files/pwm2.c: 120:     PWM2CONbits.EN = 0;
  3125                           
  3126                           ;incstack = 0
  3127                           ; Regs used in _PWM2_Stop: []
  3128  0630  003B               	movlb	27	; select bank27
  3129  0631  13AB               	bcf	43,7	;volatile
  3130  0632  0008               	return
  3131  0633                     __end_of_PWM2_Stop:	
  3132                           
  3133                           	psect	text17
  3134  062D                     __ptext17:	
  3135 ;; *************** function _PWM2_Start *****************
  3136 ;; Defined at:
  3137 ;;		line 113 in file "mcc_generated_files/pwm2.c"
  3138 ;; Parameters:    Size  Location     Type
  3139 ;;		None
  3140 ;; Auto vars:     Size  Location     Type
  3141 ;;		None
  3142 ;; Return value:  Size  Location     Type
  3143 ;;                  1    wreg      void 
  3144 ;; Registers used:
  3145 ;;		None
  3146 ;; Tracked objects:
  3147 ;;		On entry : 0/0
  3148 ;;		On exit  : 0/0
  3149 ;;		Unchanged: 0/0
  3150 ;; Data sizes:     COMMON   BANK0   BANK1   BANK2
  3151 ;;      Params:         0       0       0       0
  3152 ;;      Locals:         0       0       0       0
  3153 ;;      Temps:          0       0       0       0
  3154 ;;      Totals:         0       0       0       0
  3155 ;;Total ram usage:        0 bytes
  3156 ;; Hardware stack levels used:    1
  3157 ;; This function calls:
  3158 ;;		Nothing
  3159 ;; This function is called by:
  3160 ;;		_main
  3161 ;; This function uses a non-reentrant model
  3162 ;;
  3163                           
  3164                           
  3165                           ;psect for function _PWM2_Start
  3166  062D                     _PWM2_Start:	
  3167                           
  3168                           ;mcc_generated_files/pwm2.c: 115:     PWM2CONbits.EN = 1;
  3169                           
  3170                           ;incstack = 0
  3171                           ; Regs used in _PWM2_Start: []
  3172  062D  003B               	movlb	27	; select bank27
  3173  062E  17AB               	bsf	43,7	;volatile
  3174  062F  0008               	return
  3175  0630                     __end_of_PWM2_Start:	
  3176                           
  3177                           	psect	text18
  3178  0662                     __ptext18:	
  3179 ;; *************** function _PWM2_PhaseSet *****************
  3180 ;; Defined at:
  3181 ;;		line 133 in file "mcc_generated_files/pwm2.c"
  3182 ;; Parameters:    Size  Location     Type
  3183 ;;  phaseCount      2    0[COMMON] unsigned short 
  3184 ;; Auto vars:     Size  Location     Type
  3185 ;;		None
  3186 ;; Return value:  Size  Location     Type
  3187 ;;                  1    wreg      void 
  3188 ;; Registers used:
  3189 ;;		wreg, status,2
  3190 ;; Tracked objects:
  3191 ;;		On entry : 0/0
  3192 ;;		On exit  : 0/0
  3193 ;;		Unchanged: 0/0
  3194 ;; Data sizes:     COMMON   BANK0   BANK1   BANK2
  3195 ;;      Params:         2       0       0       0
  3196 ;;      Locals:         0       0       0       0
  3197 ;;      Temps:          0       0       0       0
  3198 ;;      Totals:         2       0       0       0
  3199 ;;Total ram usage:        2 bytes
  3200 ;; Hardware stack levels used:    1
  3201 ;; This function calls:
  3202 ;;		Nothing
  3203 ;; This function is called by:
  3204 ;;		_main
  3205 ;; This function uses a non-reentrant model
  3206 ;;
  3207                           
  3208                           
  3209                           ;psect for function _PWM2_PhaseSet
  3210  0662                     _PWM2_PhaseSet:	
  3211                           
  3212                           ;mcc_generated_files/pwm2.c: 133: void PWM2_PhaseSet(uint16_t phaseCount);mcc_generated_
      +                          files/pwm2.c: 134: {;mcc_generated_files/pwm2.c: 135:     PWM2PHH = (phaseCount>>8);
  3213                           
  3214                           ;incstack = 0
  3215                           ; Regs used in _PWM2_PhaseSet: [wreg+status,2]
  3216  0662  0871               	movf	PWM2_PhaseSet@phaseCount+1,w
  3217  0663  003B               	movlb	27	; select bank27
  3218  0664  00A2               	movwf	34	;volatile
  3219                           
  3220                           ;mcc_generated_files/pwm2.c: 136:     PWM2PHL = (phaseCount);
  3221  0665  0870               	movf	PWM2_PhaseSet@phaseCount,w
  3222  0666  00A1               	movwf	33	;volatile
  3223  0667  0008               	return
  3224  0668                     __end_of_PWM2_PhaseSet:	
  3225                           
  3226                           	psect	text19
  3227  065C                     __ptext19:	
  3228 ;; *************** function _PWM2_PeriodSet *****************
  3229 ;; Defined at:
  3230 ;;		line 145 in file "mcc_generated_files/pwm2.c"
  3231 ;; Parameters:    Size  Location     Type
  3232 ;;  periodCount     2    0[COMMON] unsigned short 
  3233 ;; Auto vars:     Size  Location     Type
  3234 ;;		None
  3235 ;; Return value:  Size  Location     Type
  3236 ;;                  1    wreg      void 
  3237 ;; Registers used:
  3238 ;;		wreg, status,2
  3239 ;; Tracked objects:
  3240 ;;		On entry : 0/0
  3241 ;;		On exit  : 0/0
  3242 ;;		Unchanged: 0/0
  3243 ;; Data sizes:     COMMON   BANK0   BANK1   BANK2
  3244 ;;      Params:         2       0       0       0
  3245 ;;      Locals:         0       0       0       0
  3246 ;;      Temps:          0       0       0       0
  3247 ;;      Totals:         2       0       0       0
  3248 ;;Total ram usage:        2 bytes
  3249 ;; Hardware stack levels used:    1
  3250 ;; This function calls:
  3251 ;;		Nothing
  3252 ;; This function is called by:
  3253 ;;		_main
  3254 ;; This function uses a non-reentrant model
  3255 ;;
  3256                           
  3257                           
  3258                           ;psect for function _PWM2_PeriodSet
  3259  065C                     _PWM2_PeriodSet:	
  3260                           
  3261                           ;mcc_generated_files/pwm2.c: 145: void PWM2_PeriodSet(uint16_t periodCount);mcc_generate
      +                          d_files/pwm2.c: 146: {;mcc_generated_files/pwm2.c: 147:     PWM2PRH = (periodCount>>8);
  3262                           
  3263                           ;incstack = 0
  3264                           ; Regs used in _PWM2_PeriodSet: [wreg+status,2]
  3265  065C  0871               	movf	PWM2_PeriodSet@periodCount+1,w
  3266  065D  003B               	movlb	27	; select bank27
  3267  065E  00A6               	movwf	38	;volatile
  3268                           
  3269                           ;mcc_generated_files/pwm2.c: 148:     PWM2PRL = (periodCount);
  3270  065F  0870               	movf	PWM2_PeriodSet@periodCount,w
  3271  0660  00A5               	movwf	37	;volatile
  3272  0661  0008               	return
  3273  0662                     __end_of_PWM2_PeriodSet:	
  3274                           
  3275                           	psect	text20
  3276  062A                     __ptext20:	
  3277 ;; *************** function _PWM2_LoadBufferSet *****************
  3278 ;; Defined at:
  3279 ;;		line 128 in file "mcc_generated_files/pwm2.c"
  3280 ;; Parameters:    Size  Location     Type
  3281 ;;		None
  3282 ;; Auto vars:     Size  Location     Type
  3283 ;;		None
  3284 ;; Return value:  Size  Location     Type
  3285 ;;                  1    wreg      void 
  3286 ;; Registers used:
  3287 ;;		None
  3288 ;; Tracked objects:
  3289 ;;		On entry : 0/0
  3290 ;;		On exit  : 0/0
  3291 ;;		Unchanged: 0/0
  3292 ;; Data sizes:     COMMON   BANK0   BANK1   BANK2
  3293 ;;      Params:         0       0       0       0
  3294 ;;      Locals:         0       0       0       0
  3295 ;;      Temps:          0       0       0       0
  3296 ;;      Totals:         0       0       0       0
  3297 ;;Total ram usage:        0 bytes
  3298 ;; Hardware stack levels used:    1
  3299 ;; This function calls:
  3300 ;;		Nothing
  3301 ;; This function is called by:
  3302 ;;		_main
  3303 ;; This function uses a non-reentrant model
  3304 ;;
  3305                           
  3306                           
  3307                           ;psect for function _PWM2_LoadBufferSet
  3308  062A                     _PWM2_LoadBufferSet:	
  3309                           
  3310                           ;mcc_generated_files/pwm2.c: 130:     PWM2LDCONbits.LDA = 1;
  3311                           
  3312                           ;incstack = 0
  3313                           ; Regs used in _PWM2_LoadBufferSet: []
  3314  062A  003B               	movlb	27	; select bank27
  3315  062B  17AF               	bsf	47,7	;volatile
  3316  062C  0008               	return
  3317  062D                     __end_of_PWM2_LoadBufferSet:	
  3318                           
  3319                           	psect	text21
  3320  0656                     __ptext21:	
  3321 ;; *************** function _PWM2_DutyCycleSet *****************
  3322 ;; Defined at:
  3323 ;;		line 139 in file "mcc_generated_files/pwm2.c"
  3324 ;; Parameters:    Size  Location     Type
  3325 ;;  dutyCycleCou    2    0[COMMON] unsigned short 
  3326 ;; Auto vars:     Size  Location     Type
  3327 ;;		None
  3328 ;; Return value:  Size  Location     Type
  3329 ;;                  1    wreg      void 
  3330 ;; Registers used:
  3331 ;;		wreg, status,2
  3332 ;; Tracked objects:
  3333 ;;		On entry : 0/0
  3334 ;;		On exit  : 0/0
  3335 ;;		Unchanged: 0/0
  3336 ;; Data sizes:     COMMON   BANK0   BANK1   BANK2
  3337 ;;      Params:         2       0       0       0
  3338 ;;      Locals:         0       0       0       0
  3339 ;;      Temps:          0       0       0       0
  3340 ;;      Totals:         2       0       0       0
  3341 ;;Total ram usage:        2 bytes
  3342 ;; Hardware stack levels used:    1
  3343 ;; This function calls:
  3344 ;;		Nothing
  3345 ;; This function is called by:
  3346 ;;		_main
  3347 ;; This function uses a non-reentrant model
  3348 ;;
  3349                           
  3350                           
  3351                           ;psect for function _PWM2_DutyCycleSet
  3352  0656                     _PWM2_DutyCycleSet:	
  3353                           
  3354                           ;mcc_generated_files/pwm2.c: 139: void PWM2_DutyCycleSet(uint16_t dutyCycleCount);mcc_ge
      +                          nerated_files/pwm2.c: 140: {;mcc_generated_files/pwm2.c: 141:     PWM2DCH = (dutyCycleCo
      +                          unt>>8);
  3355                           
  3356                           ;incstack = 0
  3357                           ; Regs used in _PWM2_DutyCycleSet: [wreg+status,2]
  3358  0656  0871               	movf	PWM2_DutyCycleSet@dutyCycleCount+1,w
  3359  0657  003B               	movlb	27	; select bank27
  3360  0658  00A4               	movwf	36	;volatile
  3361                           
  3362                           ;mcc_generated_files/pwm2.c: 142:     PWM2DCL = (dutyCycleCount);
  3363  0659  0870               	movf	PWM2_DutyCycleSet@dutyCycleCount,w
  3364  065A  00A3               	movwf	35	;volatile
  3365  065B  0008               	return
  3366  065C                     __end_of_PWM2_DutyCycleSet:	
  3367                           
  3368                           	psect	text22
  3369  0627                     __ptext22:	
  3370 ;; *************** function _PWM1_Stop *****************
  3371 ;; Defined at:
  3372 ;;		line 118 in file "mcc_generated_files/pwm1.c"
  3373 ;; Parameters:    Size  Location     Type
  3374 ;;		None
  3375 ;; Auto vars:     Size  Location     Type
  3376 ;;		None
  3377 ;; Return value:  Size  Location     Type
  3378 ;;                  1    wreg      void 
  3379 ;; Registers used:
  3380 ;;		None
  3381 ;; Tracked objects:
  3382 ;;		On entry : 0/0
  3383 ;;		On exit  : 0/0
  3384 ;;		Unchanged: 0/0
  3385 ;; Data sizes:     COMMON   BANK0   BANK1   BANK2
  3386 ;;      Params:         0       0       0       0
  3387 ;;      Locals:         0       0       0       0
  3388 ;;      Temps:          0       0       0       0
  3389 ;;      Totals:         0       0       0       0
  3390 ;;Total ram usage:        0 bytes
  3391 ;; Hardware stack levels used:    1
  3392 ;; This function calls:
  3393 ;;		Nothing
  3394 ;; This function is called by:
  3395 ;;		_main
  3396 ;; This function uses a non-reentrant model
  3397 ;;
  3398                           
  3399                           
  3400                           ;psect for function _PWM1_Stop
  3401  0627                     _PWM1_Stop:	
  3402                           
  3403                           ;mcc_generated_files/pwm1.c: 120:     PWM1CONbits.EN = 0;
  3404                           
  3405                           ;incstack = 0
  3406                           ; Regs used in _PWM1_Stop: []
  3407  0627  003B               	movlb	27	; select bank27
  3408  0628  139B               	bcf	27,7	;volatile
  3409  0629  0008               	return
  3410  062A                     __end_of_PWM1_Stop:	
  3411                           
  3412                           	psect	text23
  3413  0624                     __ptext23:	
  3414 ;; *************** function _PWM1_Start *****************
  3415 ;; Defined at:
  3416 ;;		line 113 in file "mcc_generated_files/pwm1.c"
  3417 ;; Parameters:    Size  Location     Type
  3418 ;;		None
  3419 ;; Auto vars:     Size  Location     Type
  3420 ;;		None
  3421 ;; Return value:  Size  Location     Type
  3422 ;;                  1    wreg      void 
  3423 ;; Registers used:
  3424 ;;		None
  3425 ;; Tracked objects:
  3426 ;;		On entry : 0/0
  3427 ;;		On exit  : 0/0
  3428 ;;		Unchanged: 0/0
  3429 ;; Data sizes:     COMMON   BANK0   BANK1   BANK2
  3430 ;;      Params:         0       0       0       0
  3431 ;;      Locals:         0       0       0       0
  3432 ;;      Temps:          0       0       0       0
  3433 ;;      Totals:         0       0       0       0
  3434 ;;Total ram usage:        0 bytes
  3435 ;; Hardware stack levels used:    1
  3436 ;; This function calls:
  3437 ;;		Nothing
  3438 ;; This function is called by:
  3439 ;;		_main
  3440 ;; This function uses a non-reentrant model
  3441 ;;
  3442                           
  3443                           
  3444                           ;psect for function _PWM1_Start
  3445  0624                     _PWM1_Start:	
  3446                           
  3447                           ;mcc_generated_files/pwm1.c: 115:     PWM1CONbits.EN = 1;
  3448                           
  3449                           ;incstack = 0
  3450                           ; Regs used in _PWM1_Start: []
  3451  0624  003B               	movlb	27	; select bank27
  3452  0625  179B               	bsf	27,7	;volatile
  3453  0626  0008               	return
  3454  0627                     __end_of_PWM1_Start:	
  3455                           
  3456                           	psect	text24
  3457  0650                     __ptext24:	
  3458 ;; *************** function _PWM1_PhaseSet *****************
  3459 ;; Defined at:
  3460 ;;		line 133 in file "mcc_generated_files/pwm1.c"
  3461 ;; Parameters:    Size  Location     Type
  3462 ;;  phaseCount      2    0[COMMON] unsigned short 
  3463 ;; Auto vars:     Size  Location     Type
  3464 ;;		None
  3465 ;; Return value:  Size  Location     Type
  3466 ;;                  1    wreg      void 
  3467 ;; Registers used:
  3468 ;;		wreg, status,2
  3469 ;; Tracked objects:
  3470 ;;		On entry : 0/0
  3471 ;;		On exit  : 0/0
  3472 ;;		Unchanged: 0/0
  3473 ;; Data sizes:     COMMON   BANK0   BANK1   BANK2
  3474 ;;      Params:         2       0       0       0
  3475 ;;      Locals:         0       0       0       0
  3476 ;;      Temps:          0       0       0       0
  3477 ;;      Totals:         2       0       0       0
  3478 ;;Total ram usage:        2 bytes
  3479 ;; Hardware stack levels used:    1
  3480 ;; This function calls:
  3481 ;;		Nothing
  3482 ;; This function is called by:
  3483 ;;		_main
  3484 ;; This function uses a non-reentrant model
  3485 ;;
  3486                           
  3487                           
  3488                           ;psect for function _PWM1_PhaseSet
  3489  0650                     _PWM1_PhaseSet:	
  3490                           
  3491                           ;mcc_generated_files/pwm1.c: 133: void PWM1_PhaseSet(uint16_t phaseCount);mcc_generated_
      +                          files/pwm1.c: 134: {;mcc_generated_files/pwm1.c: 135:     PWM1PHH = (phaseCount>>8);
  3492                           
  3493                           ;incstack = 0
  3494                           ; Regs used in _PWM1_PhaseSet: [wreg+status,2]
  3495  0650  0871               	movf	PWM1_PhaseSet@phaseCount+1,w
  3496  0651  003B               	movlb	27	; select bank27
  3497  0652  0092               	movwf	18	;volatile
  3498                           
  3499                           ;mcc_generated_files/pwm1.c: 136:     PWM1PHL = (phaseCount);
  3500  0653  0870               	movf	PWM1_PhaseSet@phaseCount,w
  3501  0654  0091               	movwf	17	;volatile
  3502  0655  0008               	return
  3503  0656                     __end_of_PWM1_PhaseSet:	
  3504                           
  3505                           	psect	text25
  3506  064A                     __ptext25:	
  3507 ;; *************** function _PWM1_PeriodSet *****************
  3508 ;; Defined at:
  3509 ;;		line 145 in file "mcc_generated_files/pwm1.c"
  3510 ;; Parameters:    Size  Location     Type
  3511 ;;  periodCount     2    0[COMMON] unsigned short 
  3512 ;; Auto vars:     Size  Location     Type
  3513 ;;		None
  3514 ;; Return value:  Size  Location     Type
  3515 ;;                  1    wreg      void 
  3516 ;; Registers used:
  3517 ;;		wreg, status,2
  3518 ;; Tracked objects:
  3519 ;;		On entry : 0/0
  3520 ;;		On exit  : 0/0
  3521 ;;		Unchanged: 0/0
  3522 ;; Data sizes:     COMMON   BANK0   BANK1   BANK2
  3523 ;;      Params:         2       0       0       0
  3524 ;;      Locals:         0       0       0       0
  3525 ;;      Temps:          0       0       0       0
  3526 ;;      Totals:         2       0       0       0
  3527 ;;Total ram usage:        2 bytes
  3528 ;; Hardware stack levels used:    1
  3529 ;; This function calls:
  3530 ;;		Nothing
  3531 ;; This function is called by:
  3532 ;;		_main
  3533 ;; This function uses a non-reentrant model
  3534 ;;
  3535                           
  3536                           
  3537                           ;psect for function _PWM1_PeriodSet
  3538  064A                     _PWM1_PeriodSet:	
  3539                           
  3540                           ;mcc_generated_files/pwm1.c: 145: void PWM1_PeriodSet(uint16_t periodCount);mcc_generate
      +                          d_files/pwm1.c: 146: {;mcc_generated_files/pwm1.c: 147:     PWM1PRH = (periodCount>>8);
  3541                           
  3542                           ;incstack = 0
  3543                           ; Regs used in _PWM1_PeriodSet: [wreg+status,2]
  3544  064A  0871               	movf	PWM1_PeriodSet@periodCount+1,w
  3545  064B  003B               	movlb	27	; select bank27
  3546  064C  0096               	movwf	22	;volatile
  3547                           
  3548                           ;mcc_generated_files/pwm1.c: 148:     PWM1PRL = (periodCount);
  3549  064D  0870               	movf	PWM1_PeriodSet@periodCount,w
  3550  064E  0095               	movwf	21	;volatile
  3551  064F  0008               	return
  3552  0650                     __end_of_PWM1_PeriodSet:	
  3553                           
  3554                           	psect	text26
  3555  0621                     __ptext26:	
  3556 ;; *************** function _PWM1_LoadBufferSet *****************
  3557 ;; Defined at:
  3558 ;;		line 128 in file "mcc_generated_files/pwm1.c"
  3559 ;; Parameters:    Size  Location     Type
  3560 ;;		None
  3561 ;; Auto vars:     Size  Location     Type
  3562 ;;		None
  3563 ;; Return value:  Size  Location     Type
  3564 ;;                  1    wreg      void 
  3565 ;; Registers used:
  3566 ;;		None
  3567 ;; Tracked objects:
  3568 ;;		On entry : 0/0
  3569 ;;		On exit  : 0/0
  3570 ;;		Unchanged: 0/0
  3571 ;; Data sizes:     COMMON   BANK0   BANK1   BANK2
  3572 ;;      Params:         0       0       0       0
  3573 ;;      Locals:         0       0       0       0
  3574 ;;      Temps:          0       0       0       0
  3575 ;;      Totals:         0       0       0       0
  3576 ;;Total ram usage:        0 bytes
  3577 ;; Hardware stack levels used:    1
  3578 ;; This function calls:
  3579 ;;		Nothing
  3580 ;; This function is called by:
  3581 ;;		_main
  3582 ;; This function uses a non-reentrant model
  3583 ;;
  3584                           
  3585                           
  3586                           ;psect for function _PWM1_LoadBufferSet
  3587  0621                     _PWM1_LoadBufferSet:	
  3588                           
  3589                           ;mcc_generated_files/pwm1.c: 130:     PWM1LDCONbits.LDA = 1;
  3590                           
  3591                           ;incstack = 0
  3592                           ; Regs used in _PWM1_LoadBufferSet: []
  3593  0621  003B               	movlb	27	; select bank27
  3594  0622  179F               	bsf	31,7	;volatile
  3595  0623  0008               	return
  3596  0624                     __end_of_PWM1_LoadBufferSet:	
  3597                           
  3598                           	psect	text27
  3599  0644                     __ptext27:	
  3600 ;; *************** function _PWM1_DutyCycleSet *****************
  3601 ;; Defined at:
  3602 ;;		line 139 in file "mcc_generated_files/pwm1.c"
  3603 ;; Parameters:    Size  Location     Type
  3604 ;;  dutyCycleCou    2    0[COMMON] unsigned short 
  3605 ;; Auto vars:     Size  Location     Type
  3606 ;;		None
  3607 ;; Return value:  Size  Location     Type
  3608 ;;                  1    wreg      void 
  3609 ;; Registers used:
  3610 ;;		wreg, status,2
  3611 ;; Tracked objects:
  3612 ;;		On entry : 0/0
  3613 ;;		On exit  : 0/0
  3614 ;;		Unchanged: 0/0
  3615 ;; Data sizes:     COMMON   BANK0   BANK1   BANK2
  3616 ;;      Params:         2       0       0       0
  3617 ;;      Locals:         0       0       0       0
  3618 ;;      Temps:          0       0       0       0
  3619 ;;      Totals:         2       0       0       0
  3620 ;;Total ram usage:        2 bytes
  3621 ;; Hardware stack levels used:    1
  3622 ;; This function calls:
  3623 ;;		Nothing
  3624 ;; This function is called by:
  3625 ;;		_main
  3626 ;; This function uses a non-reentrant model
  3627 ;;
  3628                           
  3629                           
  3630                           ;psect for function _PWM1_DutyCycleSet
  3631  0644                     _PWM1_DutyCycleSet:	
  3632                           
  3633                           ;mcc_generated_files/pwm1.c: 139: void PWM1_DutyCycleSet(uint16_t dutyCycleCount);mcc_ge
      +                          nerated_files/pwm1.c: 140: {;mcc_generated_files/pwm1.c: 141:     PWM1DCH = (dutyCycleCo
      +                          unt>>8);
  3634                           
  3635                           ;incstack = 0
  3636                           ; Regs used in _PWM1_DutyCycleSet: [wreg+status,2]
  3637  0644  0871               	movf	PWM1_DutyCycleSet@dutyCycleCount+1,w
  3638  0645  003B               	movlb	27	; select bank27
  3639  0646  0094               	movwf	20	;volatile
  3640                           
  3641                           ;mcc_generated_files/pwm1.c: 142:     PWM1DCL = (dutyCycleCount);
  3642  0647  0870               	movf	PWM1_DutyCycleSet@dutyCycleCount,w
  3643  0648  0093               	movwf	19	;volatile
  3644  0649  0008               	return
  3645  064A                     __end_of_PWM1_DutyCycleSet:	
  3646                           
  3647                           	psect	text28
  3648  063C                     __ptext28:	
  3649 ;; *************** function _EUSART_is_tx_done *****************
  3650 ;; Defined at:
  3651 ;;		line 88 in file "mcc_generated_files/eusart.c"
  3652 ;; Parameters:    Size  Location     Type
  3653 ;;		None
  3654 ;; Auto vars:     Size  Location     Type
  3655 ;;		None
  3656 ;; Return value:  Size  Location     Type
  3657 ;;                  1    wreg      _Bool 
  3658 ;; Registers used:
  3659 ;;		wreg, status,2, status,0
  3660 ;; Tracked objects:
  3661 ;;		On entry : 0/0
  3662 ;;		On exit  : 0/0
  3663 ;;		Unchanged: 0/0
  3664 ;; Data sizes:     COMMON   BANK0   BANK1   BANK2
  3665 ;;      Params:         0       0       0       0
  3666 ;;      Locals:         0       0       0       0
  3667 ;;      Temps:          0       0       0       0
  3668 ;;      Totals:         0       0       0       0
  3669 ;;Total ram usage:        0 bytes
  3670 ;; Hardware stack levels used:    1
  3671 ;; This function calls:
  3672 ;;		Nothing
  3673 ;; This function is called by:
  3674 ;;		_main
  3675 ;; This function uses a non-reentrant model
  3676 ;;
  3677                           
  3678                           
  3679                           ;psect for function _EUSART_is_tx_done
  3680  063C                     _EUSART_is_tx_done:	
  3681                           
  3682                           ;mcc_generated_files/eusart.c: 90:     return TXSTAbits.TRMT;
  3683                           
  3684                           ;incstack = 0
  3685                           ; Regs used in _EUSART_is_tx_done: [wreg+status,2+status,0]
  3686  063C  0023               	movlb	3	; select bank3
  3687  063D  0C1E               	rrf	30,w	;volatile
  3688  063E  3901               	andlw	1
  3689  063F  0008               	return
  3690  0640                     __end_of_EUSART_is_tx_done:	
  3691                           
  3692                           	psect	text29
  3693  0681                     __ptext29:	
  3694 ;; *************** function _EUSART_Write *****************
  3695 ;; Defined at:
  3696 ;;		line 111 in file "mcc_generated_files/eusart.c"
  3697 ;; Parameters:    Size  Location     Type
  3698 ;;  txData          1    wreg     unsigned char 
  3699 ;; Auto vars:     Size  Location     Type
  3700 ;;  txData          1    0[COMMON] unsigned char 
  3701 ;; Return value:  Size  Location     Type
  3702 ;;                  1    wreg      void 
  3703 ;; Registers used:
  3704 ;;		wreg
  3705 ;; Tracked objects:
  3706 ;;		On entry : 0/0
  3707 ;;		On exit  : 0/0
  3708 ;;		Unchanged: 0/0
  3709 ;; Data sizes:     COMMON   BANK0   BANK1   BANK2
  3710 ;;      Params:         0       0       0       0
  3711 ;;      Locals:         1       0       0       0
  3712 ;;      Temps:          0       0       0       0
  3713 ;;      Totals:         1       0       0       0
  3714 ;;Total ram usage:        1 bytes
  3715 ;; Hardware stack levels used:    1
  3716 ;; This function calls:
  3717 ;;		Nothing
  3718 ;; This function is called by:
  3719 ;;		_main
  3720 ;;		_putch
  3721 ;; This function uses a non-reentrant model
  3722 ;;
  3723                           
  3724                           
  3725                           ;psect for function _EUSART_Write
  3726  0681                     _EUSART_Write:	
  3727                           
  3728                           ;incstack = 0
  3729                           ; Regs used in _EUSART_Write: [wreg]
  3730                           ;EUSART_Write@txData stored from wreg
  3731  0681  00F0               	movwf	EUSART_Write@txData
  3732  0682                     l375:	
  3733                           ;mcc_generated_files/eusart.c: 114:     {;mcc_generated_files/eusart.c: 115:     }
  3734                           
  3735                           ;mcc_generated_files/eusart.c: 111: void EUSART_Write(uint8_t txData);mcc_generated_file
      +                          s/eusart.c: 112: {;mcc_generated_files/eusart.c: 113:     while(0 == PIR1bits.TXIF)
  3736                           
  3737                           
  3738                           ;mcc_generated_files/eusart.c: 113:     while(0 == PIR1bits.TXIF)
  3739  0682  0020               	movlb	0	; select bank0
  3740  0683  1E11               	btfss	17,4	;volatile
  3741  0684  2E82               	goto	l375
  3742                           
  3743                           ;mcc_generated_files/eusart.c: 117:     TXREG = txData;
  3744  0685  0870               	movf	EUSART_Write@txData,w
  3745  0686  0023               	movlb	3	; select bank3
  3746  0687  009A               	movwf	26	;volatile
  3747  0688  0008               	return
  3748  0689                     __end_of_EUSART_Write:	
  3749                           
  3750                           	psect	text30
  3751  069A                     __ptext30:	
  3752 ;; *************** function _EUSART_Read *****************
  3753 ;; Defined at:
  3754 ;;		line 93 in file "mcc_generated_files/eusart.c"
  3755 ;; Parameters:    Size  Location     Type
  3756 ;;		None
  3757 ;; Auto vars:     Size  Location     Type
  3758 ;;		None
  3759 ;; Return value:  Size  Location     Type
  3760 ;;                  1    wreg      unsigned char 
  3761 ;; Registers used:
  3762 ;;		wreg
  3763 ;; Tracked objects:
  3764 ;;		On entry : 0/0
  3765 ;;		On exit  : 0/0
  3766 ;;		Unchanged: 0/0
  3767 ;; Data sizes:     COMMON   BANK0   BANK1   BANK2
  3768 ;;      Params:         0       0       0       0
  3769 ;;      Locals:         0       0       0       0
  3770 ;;      Temps:          0       0       0       0
  3771 ;;      Totals:         0       0       0       0
  3772 ;;Total ram usage:        0 bytes
  3773 ;; Hardware stack levels used:    1
  3774 ;; This function calls:
  3775 ;;		Nothing
  3776 ;; This function is called by:
  3777 ;;		_main
  3778 ;;		_getch
  3779 ;; This function uses a non-reentrant model
  3780 ;;
  3781                           
  3782                           
  3783                           ;psect for function _EUSART_Read
  3784  069A                     _EUSART_Read:	
  3785  069A                     l368:	
  3786                           ;mcc_generated_files/eusart.c: 96:     {;mcc_generated_files/eusart.c: 97:     }
  3787                           
  3788                           ;mcc_generated_files/eusart.c: 95:     while(!PIR1bits.RCIF)
  3789                           
  3790                           ;incstack = 0
  3791                           ; Regs used in _EUSART_Read: [wreg]
  3792                           
  3793                           
  3794                           ;mcc_generated_files/eusart.c: 95:     while(!PIR1bits.RCIF)
  3795  069A  0020               	movlb	0	; select bank0
  3796  069B  1E91               	btfss	17,5	;volatile
  3797  069C  2E9A               	goto	l368
  3798                           
  3799                           ;mcc_generated_files/eusart.c: 100:     if(1 == RCSTAbits.OERR)
  3800  069D  0023               	movlb	3	; select bank3
  3801  069E  1C9D               	btfss	29,1	;volatile
  3802  069F  2EA2               	goto	l1396
  3803                           
  3804                           ;mcc_generated_files/eusart.c: 101:     {;mcc_generated_files/eusart.c: 104:         RCS
      +                          TAbits.CREN = 0;
  3805  06A0  121D               	bcf	29,4	;volatile
  3806                           
  3807                           ;mcc_generated_files/eusart.c: 105:         RCSTAbits.CREN = 1;
  3808  06A1  161D               	bsf	29,4	;volatile
  3809  06A2                     l1396:	
  3810                           ;mcc_generated_files/eusart.c: 106:     }
  3811                           
  3812                           
  3813                           ;mcc_generated_files/eusart.c: 108:     return RCREG;
  3814  06A2  0819               	movf	25,w	;volatile
  3815  06A3  0008               	return
  3816  06A4                     __end_of_EUSART_Read:	
  3817                           
  3818                           	psect	text31
  3819  06C1                     __ptext31:	
  3820 ;; *************** function _ADC1_GetConversion *****************
  3821 ;; Defined at:
  3822 ;;		line 113 in file "mcc_generated_files/adc1.c"
  3823 ;; Parameters:    Size  Location     Type
  3824 ;;  channel         1    wreg     enum E3034
  3825 ;; Auto vars:     Size  Location     Type
  3826 ;;  channel         1    3[COMMON] enum E3034
  3827 ;; Return value:  Size  Location     Type
  3828 ;;                  2    0[COMMON] unsigned short 
  3829 ;; Registers used:
  3830 ;;		wreg, status,2, status,0
  3831 ;; Tracked objects:
  3832 ;;		On entry : 0/0
  3833 ;;		On exit  : 0/0
  3834 ;;		Unchanged: 0/0
  3835 ;; Data sizes:     COMMON   BANK0   BANK1   BANK2
  3836 ;;      Params:         2       0       0       0
  3837 ;;      Locals:         1       0       0       0
  3838 ;;      Temps:          1       0       0       0
  3839 ;;      Totals:         4       0       0       0
  3840 ;;Total ram usage:        4 bytes
  3841 ;; Hardware stack levels used:    1
  3842 ;; This function calls:
  3843 ;;		Nothing
  3844 ;; This function is called by:
  3845 ;;		_main
  3846 ;; This function uses a non-reentrant model
  3847 ;;
  3848                           
  3849                           
  3850                           ;psect for function _ADC1_GetConversion
  3851  06C1                     _ADC1_GetConversion:	
  3852                           
  3853                           ;incstack = 0
  3854                           ; Regs used in _ADC1_GetConversion: [wreg+status,2+status,0]
  3855                           ;ADC1_GetConversion@channel stored from wreg
  3856  06C1  00F3               	movwf	ADC1_GetConversion@channel
  3857                           
  3858                           ;mcc_generated_files/adc1.c: 113: adc_result_t ADC1_GetConversion(adc_channel_t channel)
      +                          ;mcc_generated_files/adc1.c: 114: {;mcc_generated_files/adc1.c: 116:     ADCON0bits.CHS 
      +                          = channel;
  3859  06C2  0873               	movf	ADC1_GetConversion@channel,w
  3860  06C3  00F2               	movwf	??_ADC1_GetConversion
  3861  06C4  0DF2               	rlf	??_ADC1_GetConversion,f
  3862  06C5  0DF2               	rlf	??_ADC1_GetConversion,f
  3863  06C6  0021               	movlb	1	; select bank1
  3864  06C7  081D               	movf	29,w	;volatile
  3865  06C8  0672               	xorwf	??_ADC1_GetConversion,w
  3866  06C9  3983               	andlw	-125
  3867  06CA  0672               	xorwf	??_ADC1_GetConversion,w
  3868  06CB  009D               	movwf	29	;volatile
  3869                           
  3870                           ;mcc_generated_files/adc1.c: 119:     ADCON0bits.ADON = 1;
  3871  06CC  141D               	bsf	29,0	;volatile
  3872                           
  3873                           ;mcc_generated_files/adc1.c: 125:     ADCON0bits.GO_nDONE = 1;
  3874                           
  3875                           ;mcc_generated_files/adc1.c: 122:     _delay((unsigned long)((5)*(500000/4000000.0)));
  3876  06CD  0021               	movlb	1	; select bank1
  3877  06CE  149D               	bsf	29,1	;volatile
  3878  06CF                     l325:	
  3879                           ;mcc_generated_files/adc1.c: 129:     {;mcc_generated_files/adc1.c: 130:     }
  3880                           
  3881                           ;mcc_generated_files/adc1.c: 128:     while (ADCON0bits.GO_nDONE)
  3882                           
  3883                           
  3884                           ;mcc_generated_files/adc1.c: 128:     while (ADCON0bits.GO_nDONE)
  3885  06CF  189D               	btfsc	29,1	;volatile
  3886  06D0  2ECF               	goto	l325
  3887                           
  3888                           ;mcc_generated_files/adc1.c: 133:     return ((adc_result_t)((ADRESH << 8) + ADRESL));
  3889  06D1  081C               	movf	28,w	;volatile
  3890  06D2  00F1               	movwf	?_ADC1_GetConversion+1
  3891  06D3  081B               	movf	27,w	;volatile
  3892  06D4  00F0               	movwf	?_ADC1_GetConversion
  3893  06D5  0008               	return
  3894  06D6                     __end_of_ADC1_GetConversion:	
  3895  007E                     btemp	set	126	;btemp
  3896  007E                     wtemp0	set	126


Data Sizes:
    Strings     0
    Constant    0
    Data        0
    BSS         0
    Persistent  0
    Stack       0

Auto Spaces:
    Space          Size  Autos    Used
    COMMON           14      8       8
    BANK0            80     11      11
    BANK1            80      0       0
    BANK2            80      0       0

Pointer List with Targets:

    None.

Critical Paths under _main in COMMON

    _main->_ADC1_GetConversion

Critical Paths under _main in BANK0

    None.

Critical Paths under _main in BANK1

    None.

Critical Paths under _main in BANK2

    None.

Call Graph Tables:

 ---------------------------------------------------------------------------------
 (Depth) Function   	        Calls       Base Space   Used Autos Params    Refs
 ---------------------------------------------------------------------------------
 (0) _main                                                15    15      0    1849
                                              4 COMMON     4     4      0
                                              0 BANK0     11    11      0
                 _ADC1_GetConversion
                        _EUSART_Read
                       _EUSART_Write
                  _EUSART_is_tx_done
                  _PWM1_DutyCycleSet
                 _PWM1_LoadBufferSet
                     _PWM1_PeriodSet
                      _PWM1_PhaseSet
                         _PWM1_Start
                          _PWM1_Stop
                  _PWM2_DutyCycleSet
                 _PWM2_LoadBufferSet
                     _PWM2_PeriodSet
                      _PWM2_PhaseSet
                         _PWM2_Start
                          _PWM2_Stop
                  _PWM3_DutyCycleSet
                 _PWM3_LoadBufferSet
                     _PWM3_PeriodSet
                      _PWM3_PhaseSet
                         _PWM3_Start
                          _PWM3_Stop
                  _SYSTEM_Initialize
 ---------------------------------------------------------------------------------
 (1) _SYSTEM_Initialize                                    0     0      0       0
                    _ADC1_Initialize
                  _EUSART_Initialize
              _OSCILLATOR_Initialize
             _PIN_MANAGER_Initialize
                    _PWM1_Initialize
                    _PWM2_Initialize
                    _PWM3_Initialize
                     _WDT_Initialize
 ---------------------------------------------------------------------------------
 (2) _WDT_Initialize                                       0     0      0       0
 ---------------------------------------------------------------------------------
 (2) _PWM3_Initialize                                      0     0      0       0
 ---------------------------------------------------------------------------------
 (2) _PWM2_Initialize                                      0     0      0       0
 ---------------------------------------------------------------------------------
 (2) _PWM1_Initialize                                      0     0      0       0
 ---------------------------------------------------------------------------------
 (2) _PIN_MANAGER_Initialize                               0     0      0       0
 ---------------------------------------------------------------------------------
 (2) _OSCILLATOR_Initialize                                0     0      0       0
 ---------------------------------------------------------------------------------
 (2) _EUSART_Initialize                                    0     0      0       0
 ---------------------------------------------------------------------------------
 (2) _ADC1_Initialize                                      0     0      0       0
 ---------------------------------------------------------------------------------
 (1) _PWM3_Stop                                            0     0      0       0
 ---------------------------------------------------------------------------------
 (1) _PWM3_Start                                           0     0      0       0
 ---------------------------------------------------------------------------------
 (1) _PWM3_PhaseSet                                        2     0      2     120
                                              0 COMMON     2     0      2
 ---------------------------------------------------------------------------------
 (1) _PWM3_PeriodSet                                       2     0      2     120
                                              0 COMMON     2     0      2
 ---------------------------------------------------------------------------------
 (1) _PWM3_LoadBufferSet                                   0     0      0       0
 ---------------------------------------------------------------------------------
 (1) _PWM3_DutyCycleSet                                    2     0      2     196
                                              0 COMMON     2     0      2
 ---------------------------------------------------------------------------------
 (1) _PWM2_Stop                                            0     0      0       0
 ---------------------------------------------------------------------------------
 (1) _PWM2_Start                                           0     0      0       0
 ---------------------------------------------------------------------------------
 (1) _PWM2_PhaseSet                                        2     0      2     120
                                              0 COMMON     2     0      2
 ---------------------------------------------------------------------------------
 (1) _PWM2_PeriodSet                                       2     0      2     120
                                              0 COMMON     2     0      2
 ---------------------------------------------------------------------------------
 (1) _PWM2_LoadBufferSet                                   0     0      0       0
 ---------------------------------------------------------------------------------
 (1) _PWM2_DutyCycleSet                                    2     0      2     196
                                              0 COMMON     2     0      2
 ---------------------------------------------------------------------------------
 (1) _PWM1_Stop                                            0     0      0       0
 ---------------------------------------------------------------------------------
 (1) _PWM1_Start                                           0     0      0       0
 ---------------------------------------------------------------------------------
 (1) _PWM1_PhaseSet                                        2     0      2     120
                                              0 COMMON     2     0      2
 ---------------------------------------------------------------------------------
 (1) _PWM1_PeriodSet                                       2     0      2     120
                                              0 COMMON     2     0      2
 ---------------------------------------------------------------------------------
 (1) _PWM1_LoadBufferSet                                   0     0      0       0
 ---------------------------------------------------------------------------------
 (1) _PWM1_DutyCycleSet                                    2     0      2     196
                                              0 COMMON     2     0      2
 ---------------------------------------------------------------------------------
 (1) _EUSART_is_tx_done                                    0     0      0       0
 ---------------------------------------------------------------------------------
 (1) _EUSART_Write                                         1     1      0      22
                                              0 COMMON     1     1      0
 ---------------------------------------------------------------------------------
 (1) _EUSART_Read                                          0     0      0       0
 ---------------------------------------------------------------------------------
 (1) _ADC1_GetConversion                                   4     2      2      22
                                              0 COMMON     4     2      2
 ---------------------------------------------------------------------------------
 Estimated maximum stack depth 2
 ---------------------------------------------------------------------------------

 Call Graph Graphs:

 _main (ROOT)
   _ADC1_GetConversion
   _EUSART_Read
   _EUSART_Write
   _EUSART_is_tx_done
   _PWM1_DutyCycleSet
   _PWM1_LoadBufferSet
   _PWM1_PeriodSet
   _PWM1_PhaseSet
   _PWM1_Start
   _PWM1_Stop
   _PWM2_DutyCycleSet
   _PWM2_LoadBufferSet
   _PWM2_PeriodSet
   _PWM2_PhaseSet
   _PWM2_Start
   _PWM2_Stop
   _PWM3_DutyCycleSet
   _PWM3_LoadBufferSet
   _PWM3_PeriodSet
   _PWM3_PhaseSet
   _PWM3_Start
   _PWM3_Stop
   _SYSTEM_Initialize
     _ADC1_Initialize
     _EUSART_Initialize
     _OSCILLATOR_Initialize
     _PIN_MANAGER_Initialize
     _PWM1_Initialize
     _PWM2_Initialize
     _PWM3_Initialize
     _WDT_Initialize

 Address spaces:
Name               Size   Autos  Total    Cost      Usage
BIGRAM              F0      0       0       0        0.0%
NULL                 0      0       0       0        0.0%
CODE                 0      0       0       0        0.0%
BITCOMMON            E      0       0       1        0.0%
BITSFR0              0      0       0       1        0.0%
SFR0                 0      0       0       1        0.0%
COMMON               E      8       8       2       57.1%
BITSFR1              0      0       0       2        0.0%
SFR1                 0      0       0       2        0.0%
BITSFR2              0      0       0       3        0.0%
SFR2                 0      0       0       3        0.0%
STACK                0      0       0       3        0.0%
BITSFR3              0      0       0       4        0.0%
SFR3                 0      0       0       4        0.0%
ABS                  0      0       0       4        0.0%
BITBANK0            50      0       0       5        0.0%
BITSFR4              0      0       0       5        0.0%
SFR4                 0      0       0       5        0.0%
BANK0               50      B       B       6       13.8%
BITSFR5              0      0       0       6        0.0%
SFR5                 0      0       0       6        0.0%
BITBANK1            50      0       0       7        0.0%
BITSFR6              0      0       0       7        0.0%
SFR6                 0      0       0       7        0.0%
BANK1               50      0       0       8        0.0%
BITSFR7              0      0       0       8        0.0%
SFR7                 0      0       0       8        0.0%
BITBANK2            50      0       0       9        0.0%
BITSFR8              0      0       0       9        0.0%
SFR8                 0      0       0       9        0.0%
BANK2               50      0       0      10        0.0%
BITSFR9              0      0       0      10        0.0%
SFR9                 0      0       0      10        0.0%
BITSFR10             0      0       0      11        0.0%
SFR10                0      0       0      11        0.0%
DATA                 0      0       0      11        0.0%
BITSFR11             0      0       0      12        0.0%
SFR11                0      0       0      12        0.0%
BITSFR12             0      0       0      13        0.0%
SFR12                0      0       0      13        0.0%
BITSFR13             0      0       0      14        0.0%
SFR13                0      0       0      14        0.0%
BITSFR14             0      0       0      15        0.0%
SFR14                0      0       0      15        0.0%
BITSFR15             0      0       0      16        0.0%
SFR15                0      0       0      16        0.0%
BITSFR16             0      0       0      17        0.0%
SFR16                0      0       0      17        0.0%
BITSFR17             0      0       0      18        0.0%
SFR17                0      0       0      18        0.0%
BITSFR18             0      0       0      19        0.0%
SFR18                0      0       0      19        0.0%
BITSFR19             0      0       0      20        0.0%
SFR19                0      0       0      20        0.0%
BITSFR20             0      0       0      21        0.0%
SFR20                0      0       0      21        0.0%
BITSFR21             0      0       0      22        0.0%
SFR21                0      0       0      22        0.0%
BITSFR22             0      0       0      23        0.0%
SFR22                0      0       0      23        0.0%
BITSFR23             0      0       0      24        0.0%
SFR23                0      0       0      24        0.0%
BITSFR24             0      0       0      25        0.0%
SFR24                0      0       0      25        0.0%
BITSFR25             0      0       0      26        0.0%
SFR25                0      0       0      26        0.0%
BITSFR26             0      0       0      27        0.0%
SFR26                0      0       0      27        0.0%
BITSFR27             0      0       0      28        0.0%
SFR27                0      0       0      28        0.0%
BITSFR28             0      0       0      29        0.0%
SFR28                0      0       0      29        0.0%
BITSFR29             0      0       0      30        0.0%
SFR29                0      0       0      30        0.0%
BITSFR30             0      0       0      31        0.0%
SFR30                0      0       0      31        0.0%
BITSFR31             0      0       0      32        0.0%
SFR31                0      0       0      32        0.0%


Microchip Technology PIC Macro Assembler V2.00 build -1524193055 
Symbol Table                                                                                   Sat Jul 28 16:46:10 2018

            ??_PWM3_DutyCycleSet 0072                      __CFG_CP$OFF 0000       __end_of_ADC1_GetConversion 06D6  
                    __CFG_LVP$ON 0000                              l325 06CF                              l375 0682  
                            l447 07A6                              l368 069A                              l448 07B8  
                            l449 07CA                              u245 0789                              u357 0768  
                            u367 07FA                     __CFG_BORV$LO 0000                              wreg 0009  
     __size_of_PWM2_DutyCycleSet 0006                     ?_EUSART_Read 0070        __end_of_PWM3_DutyCycleSet 066E  
                           l1450 075B                             l1466 078D                             l1458 0771  
                           l1396 06A2                             l1492 07E5                             l1484 07D3  
                           l1488 07DC          __end_of_PWM1_Initialize 06EB                             _LATA 010C  
                           _WPUA 020C                      main@receive 0020                     __CFG_WRT$OFF 0000  
                           _main 0715                             btemp 007E                    __CFG_BOREN$ON 0000  
                           start 0001                    __CFG_MCLRE$ON 0000          __end_of_PWM2_Initialize 0700  
                  __CFG_PLLEN$ON 0000                    ?_EUSART_Write 0070   __size_of_OSCILLATOR_Initialize 0007  
  __end_of_OSCILLATOR_Initialize 0681                            ?_main 0070                    __CFG_WDTE$OFF 0000  
                          _RCREG 0199                            _RCSTA 019D                            _TRISA 008C  
                          _TXREG 019A                            _TXSTA 019E                      ?_PWM1_Start 0070  
                    ?_PWM2_Start 0070               __size_of_PWM1_Stop 0003               __size_of_PWM2_Stop 0003  
                    ?_PWM3_Start 0070               __size_of_PWM3_Stop 0003                   _WDT_Initialize 0640  
        __end_of_PWM3_Initialize 0715                            wtemp0 007E  PWM3_DutyCycleSet@dutyCycleCount 0070  
                __initialization 07FE                     __end_of_main 07FE                   ??_EUSART_Write 0070  
                         ??_main 0074           __end_of_WDT_Initialize 0644                           _ADCON0 009D  
                         _ADCON1 009E                           _ADCON2 009F       __size_of_PWM3_DutyCycleSet 0006  
                         _ADRESH 009C                           _ADRESL 009B                           _APFCON 011D  
    __size_of_PWM3_LoadBufferSet 0003                           _ANSELA 018C                           _BORCON 0116  
               ?_PWM1_Initialize 0070                           _ODCONA 028C                           _OSCCON 0099  
                         _SPBRGH 019C                           _SPBRGL 019B                           _WDTCON 0097  
                 __CFG_PWRTE$OFF 0000  PWM1_DutyCycleSet@dutyCycleCount 0070                __end_of_PWM1_Stop 062A  
              __end_of_PWM2_Stop 0633                __end_of_PWM3_Stop 063C                   __CFG_STVREN$ON 0000  
            __size_of_PWM1_Start 0003              __size_of_PWM2_Start 0003              __size_of_PWM3_Start 0003  
               ?_PWM2_Initialize 0070         __size_of_ADC1_Initialize 0008       __end_of_PWM2_LoadBufferSet 062D  
                ?_WDT_Initialize 0070                   main@adc_result 0029                 ?_PWM3_Initialize 0070  
           __size_of_EUSART_Read 000A                _SYSTEM_Initialize 0691               _PWM1_LoadBufferSet 0621  
        __end_of__initialization 07FE               ?_SYSTEM_Initialize 0070            __end_of_PWM1_PhaseSet 0656  
            ?_PWM1_LoadBufferSet 0070                   __pcstackCOMMON 0070            __end_of_PWM2_PhaseSet 0668  
            ??_SYSTEM_Initialize 0070            __end_of_PWM3_PhaseSet 067A          __size_of_PWM1_PeriodSet 0006  
        PWM3_PhaseSet@phaseCount 0070                   _OPTION_REGbits 0095        PWM1_PeriodSet@periodCount 0070  
        __size_of_PWM2_PeriodSet 0006             ??_PWM1_LoadBufferSet 0070        __end_of_SYSTEM_Initialize 069A  
             _ADC1_GetConversion 06C1             __end_of_EUSART_Write 0689          __size_of_PWM3_PeriodSet 0006  
            ?_ADC1_GetConversion 0070                       __pmaintext 0715                          _BAUDCON 019F  
           ??_ADC1_GetConversion 0072                          _PWM1DCH 0D94                     ??_PWM1_Start 0070  
                        _PWM1DCL 0D93                          _PWM2DCH 0DA4                          _PWM2DCL 0DA3  
                        _OSCTUNE 0098                          _PWM3DCH 0DB4                          _PWM3DCL 0DB3  
                        _PWM1CON 0D9B                          _PWM2CON 0DAB                          _PWM3CON 0DBB  
                        _PWM1OFH 0D98                          _PWM1OFL 0D97                          _PWM2OFH 0DA8  
                        _PWM1PHH 0D92                          _PWM2OFL 0DA7                          _PWM1PHL 0D91  
                   ??_PWM2_Start 0070                          _PWM3OFH 0DB8                          _PWM2PHH 0DA2  
                        _PWM3OFL 0DB7                          _PWM2PHL 0DA1                          _PWM3PHH 0DB2  
                        _PWM3PHL 0DB1                          _PWM1PRH 0D96                          _PWM1PRL 0D95  
                        _PWM2PRH 0DA6                          _PWM2PRL 0DA5                          _PWM3PRH 0DB6  
                        _PWM3PRL 0DB5                     ??_PWM3_Start 0070                ??_ADC1_Initialize 0070  
             __end_of_PWM1_Start 0627               __end_of_PWM2_Start 0630               __end_of_PWM3_Start 0639  
                        __ptext1 0691                          __ptext2 0640                          __ptext3 0700  
                        __ptext4 06EB                          __ptext5 06D6                          __ptext6 06AF  
                        __ptext7 067A                          __ptext8 06A4                          __ptext9 0689  
          _OSCILLATOR_Initialize 067A         ??_PIN_MANAGER_Initialize 0070       __size_of_SYSTEM_Initialize 0009  
           end_of_initialization 07FE                _EUSART_Initialize 06A4               ?_EUSART_Initialize 0070  
                      _RCSTAbits 019D                        _PWM1LDCON 0D9F                        _PWM2LDCON 0DAF  
                      _PWM3LDCON 0DBF                        _PWM1OFCON 0DA0                        _PWM2OFCON 0DB0  
                      _PWM3OFCON 0DC0                   _PWM1_PeriodSet 064A              ??_EUSART_Initialize 0070  
               ??_WDT_Initialize 0070                        _PWM1_Stop 0627                        _PWM2_Stop 0630  
                      _PWM3_Stop 0639                       main@PERIOD 0021                 __CFG_FOSC$INTOSC 0000  
                 _PWM2_PeriodSet 065C       __end_of_PWM3_LoadBufferSet 0636            __size_of_EUSART_Write 0008  
                 _PWM3_PeriodSet 066E        __end_of_EUSART_Initialize 06AF               _PWM2_LoadBufferSet 062A  
                      _TXSTAbits 019E        ADC1_GetConversion@channel 0073         __size_of_PWM1_Initialize 0015  
         __end_of_PWM1_PeriodSet 0650              ?_PWM2_LoadBufferSet 0070                     _EUSART_Write 0681  
                     ?_PWM1_Stop 0070                       ?_PWM2_Stop 0070                       ?_PWM3_Stop 0070  
         ?_OSCILLATOR_Initialize 0070           __end_of_PWM2_PeriodSet 0662              start_initialization 07FE  
       __size_of_PWM2_Initialize 0015  __size_of_PIN_MANAGER_Initialize 0012             ??_PWM2_LoadBufferSet 0070  
                  ??_EUSART_Read 0070           __end_of_PWM3_PeriodSet 0674                    _PWM1LDCONbits 0D9F  
                  _PWM2LDCONbits 0DAF                    _PWM3LDCONbits 0DBF                 __CFG_LPBOREN$OFF 0000  
       __size_of_PWM3_Initialize 0015                  ?_PWM1_PeriodSet 0070                  _ADC1_Initialize 0689  
        PWM1_PhaseSet@phaseCount 0070                  ?_PWM2_PeriodSet 0070                        ___latbits 0000  
      PWM2_PeriodSet@periodCount 0070                    __pcstackBANK0 0020      __size_of_PWM1_LoadBufferSet 0003  
         __size_of_PWM1_PhaseSet 0006                  ?_PWM3_PeriodSet 0070           __size_of_PWM2_PhaseSet 0006  
     __size_of_EUSART_Initialize 000B           __size_of_PWM3_PhaseSet 0006              __end_of_EUSART_Read 06A4  
         _PIN_MANAGER_Initialize 06AF  PWM2_DutyCycleSet@dutyCycleCount 0070                ??_PWM1_Initialize 0070  
                    ??_PWM1_Stop 0070                      ??_PWM2_Stop 0070                      ??_PWM3_Stop 0070  
    __size_of_ADC1_GetConversion 0015                _PWM1_DutyCycleSet 0644                ??_PWM2_Initialize 0070  
             ?_PWM1_DutyCycleSet 0070          __end_of_ADC1_Initialize 0691                         _PIR1bits 0011  
                  _PWM1_PhaseSet 0650              ??_PWM1_DutyCycleSet 0072                _EUSART_is_tx_done 063C  
                       _PWM1INTE 0D9C                         _PWM1INTF 0D9D                         _PWM2INTE 0DAC  
                       _PWM2INTF 0DAD                         _PWM3INTE 0DBC                         _PWM3INTF 0DBD  
                       _PWM1TMRH 0D9A                         _PWM1TMRL 0D99                         _PWM2TMRH 0DAA  
                       _PWM2TMRL 0DA9                         _PWM3TMRH 0DBA                         _PWM3TMRL 0DB9  
                  _PWM2_PhaseSet 0662               ?_EUSART_is_tx_done 0070                    _PWM3_PhaseSet 0674  
              ??_PWM3_Initialize 0070                       _ADCON0bits 009D              ??_EUSART_is_tx_done 0070  
      __end_of_PWM1_DutyCycleSet 064A                      _EUSART_Read 069A               _PWM3_LoadBufferSet 0633  
      __end_of_EUSART_is_tx_done 0640                   ?_PWM1_PhaseSet 0070                     _PWM1INTFbits 0D9D  
                   _PWM2INTFbits 0DAD                   ?_PWM2_PhaseSet 0070                     _PWM3INTFbits 0DBD  
            ?_PWM3_LoadBufferSet 0070          ??_OSCILLATOR_Initialize 0070                   ?_PWM3_PhaseSet 0070  
                       __ptext10 0639                         __ptext11 0636                         __ptext20 062A  
                       __ptext12 0674                         __ptext21 0656                         __ptext13 066E  
                       __ptext30 069A                         __ptext22 0627                         __ptext14 0633  
                       __ptext31 06C1                         __ptext23 0624                         __ptext15 0668  
                       __ptext24 0650                         __ptext16 0630                         __ptext25 064A  
                       __ptext17 062D                         __ptext26 0621                         __ptext18 0662  
                       __ptext27 0644                         __ptext19 065C                         __ptext28 063C  
                       __ptext29 0681             ??_PWM3_LoadBufferSet 0070                _PWM2_DutyCycleSet 0656  
                  __size_of_main 00E9               ?_PWM2_DutyCycleSet 0070                 ??_PWM1_PeriodSet 0072  
               ?_ADC1_Initialize 0070              ??_PWM2_DutyCycleSet 0072                         main@LED1 0023  
                       main@LED2 0025                         main@LED3 0027                 ??_PWM2_PeriodSet 0072  
               ??_PWM3_PeriodSet 0072                      _PWM1CONbits 0D9B                      _PWM2CONbits 0DAB  
                    _PWM3CONbits 0DBB       __size_of_PWM1_DutyCycleSet 0006        __end_of_PWM2_DutyCycleSet 065C  
    __size_of_PWM2_LoadBufferSet 0003          __size_of_WDT_Initialize 0004          ?_PIN_MANAGER_Initialize 0070  
              __CFG_CLKOUTEN$OFF 0000                  ??_PWM1_PhaseSet 0072                  _PWM1_Initialize 06D6  
     __size_of_EUSART_is_tx_done 0004                  ??_PWM2_PhaseSet 0072                  ??_PWM3_PhaseSet 0072  
                     _PWM1CLKCON 0D9E                       _PWM2CLKCON 0DAE                       _PWM3CLKCON 0DBE  
        PWM2_PhaseSet@phaseCount 0070       __end_of_PWM1_LoadBufferSet 0624                  _PWM2_Initialize 06EB  
      PWM3_PeriodSet@periodCount 0070                       _PWM1_Start 0624                       _PWM2_Start 062D  
                     _PWM3_Start 0636               EUSART_Write@txData 0070   __end_of_PIN_MANAGER_Initialize 06C1  
              _PWM3_DutyCycleSet 0668               ?_PWM3_DutyCycleSet 0070                  _PWM3_Initialize 0700  
